
blue_rtos.elf:     file format elf32-littlearm

Sections:
Idx Name          Size      VMA       LMA       File off  Algn
  0 .isr_vector   0000010c  08000000  08000000  00010000  2**0
                  CONTENTS, ALLOC, LOAD, READONLY, DATA
  1 .text         000053d0  08000110  08000110  00010110  2**4
                  CONTENTS, ALLOC, LOAD, READONLY, CODE
  2 .rodata       00000090  080054e0  080054e0  000154e0  2**0
                  CONTENTS, ALLOC, LOAD, READONLY, DATA
  3 .ARM.extab    00000000  08005570  08005570  00020180  2**0
                  CONTENTS
  4 .ARM          00000000  08005570  08005570  00020180  2**0
                  CONTENTS
  5 .preinit_array 00000000  08005570  08005570  00020180  2**0
                  CONTENTS, ALLOC, LOAD, DATA
  6 .init_array   00000004  08005570  08005570  00015570  2**2
                  CONTENTS, ALLOC, LOAD, DATA
  7 .fini_array   00000004  08005574  08005574  00015574  2**2
                  CONTENTS, ALLOC, LOAD, DATA
  8 .data         00000180  20000000  08005578  00020000  2**2
                  CONTENTS, ALLOC, LOAD, DATA
  9 .bss          00002be8  20000180  080056f8  00020180  2**2
                  ALLOC
 10 ._user_heap_stack 00000600  20002d68  080056f8  00022d68  2**0
                  ALLOC
 11 .ARM.attributes 00000029  00000000  00000000  00020180  2**0
                  CONTENTS, READONLY
 12 .comment      0000007b  00000000  00000000  000201a9  2**0
                  CONTENTS, READONLY
 13 .debug_frame  00000074  00000000  00000000  00020224  2**2
                  CONTENTS, READONLY, DEBUGGING

Disassembly of section .text:

08000110 <__do_global_dtors_aux>:
 8000110:	b510      	push	{r4, lr}
 8000112:	4c05      	ldr	r4, [pc, #20]	; (8000128 <__do_global_dtors_aux+0x18>)
 8000114:	7823      	ldrb	r3, [r4, #0]
 8000116:	b933      	cbnz	r3, 8000126 <__do_global_dtors_aux+0x16>
 8000118:	4b04      	ldr	r3, [pc, #16]	; (800012c <__do_global_dtors_aux+0x1c>)
 800011a:	b113      	cbz	r3, 8000122 <__do_global_dtors_aux+0x12>
 800011c:	4804      	ldr	r0, [pc, #16]	; (8000130 <__do_global_dtors_aux+0x20>)
 800011e:	f3af 8000 	nop.w
 8000122:	2301      	movs	r3, #1
 8000124:	7023      	strb	r3, [r4, #0]
 8000126:	bd10      	pop	{r4, pc}
 8000128:	20000180 	.word	0x20000180
 800012c:	00000000 	.word	0x00000000
 8000130:	080054c8 	.word	0x080054c8

08000134 <frame_dummy>:
 8000134:	b508      	push	{r3, lr}
 8000136:	4b03      	ldr	r3, [pc, #12]	; (8000144 <frame_dummy+0x10>)
 8000138:	b11b      	cbz	r3, 8000142 <frame_dummy+0xe>
 800013a:	4903      	ldr	r1, [pc, #12]	; (8000148 <frame_dummy+0x14>)
 800013c:	4803      	ldr	r0, [pc, #12]	; (800014c <frame_dummy+0x18>)
 800013e:	f3af 8000 	nop.w
 8000142:	bd08      	pop	{r3, pc}
 8000144:	00000000 	.word	0x00000000
 8000148:	20000184 	.word	0x20000184
 800014c:	080054c8 	.word	0x080054c8

08000150 <_Z8delay_usmP17TIM_HandleTypeDef>:
 8000150:	2200      	movs	r2, #0
 8000152:	680b      	ldr	r3, [r1, #0]
 8000154:	625a      	str	r2, [r3, #36]	; 0x24
 8000156:	6a5a      	ldr	r2, [r3, #36]	; 0x24
 8000158:	4282      	cmp	r2, r0
 800015a:	d3fc      	bcc.n	8000156 <_Z8delay_usmP17TIM_HandleTypeDef+0x6>
 800015c:	4770      	bx	lr
	...

08000160 <_Z12StartBlink01Pv>:
 8000160:	b570      	push	{r4, r5, r6, lr}
 8000162:	f004 ff7f 	bl	8005064 <MX_USB_DEVICE_Init>
 8000166:	2400      	movs	r4, #0
 8000168:	4e1b      	ldr	r6, [pc, #108]	; (80001d8 <_Z12StartBlink01Pv+0x78>)
 800016a:	4d1c      	ldr	r5, [pc, #112]	; (80001dc <_Z12StartBlink01Pv+0x7c>)
 800016c:	f04f 32ff 	mov.w	r2, #4294967295
 8000170:	2100      	movs	r1, #0
 8000172:	2001      	movs	r0, #1
 8000174:	f003 f9c6 	bl	8003504 <osThreadFlagsWait>
 8000178:	bb2c      	cbnz	r4, 80001c6 <_Z12StartBlink01Pv+0x66>
 800017a:	2201      	movs	r2, #1
 800017c:	f44f 5100 	mov.w	r1, #8192	; 0x2000
 8000180:	4630      	mov	r0, r6
 8000182:	f000 fb35 	bl	80007f0 <HAL_GPIO_WritePin>
 8000186:	240a      	movs	r4, #10
 8000188:	4629      	mov	r1, r5
 800018a:	f242 7010 	movw	r0, #10000	; 0x2710
 800018e:	f7ff ffdf 	bl	8000150 <_Z8delay_usmP17TIM_HandleTypeDef>
 8000192:	4629      	mov	r1, r5
 8000194:	f242 7010 	movw	r0, #10000	; 0x2710
 8000198:	f7ff ffda 	bl	8000150 <_Z8delay_usmP17TIM_HandleTypeDef>
 800019c:	4629      	mov	r1, r5
 800019e:	f242 7010 	movw	r0, #10000	; 0x2710
 80001a2:	f7ff ffd5 	bl	8000150 <_Z8delay_usmP17TIM_HandleTypeDef>
 80001a6:	3c01      	subs	r4, #1
 80001a8:	4629      	mov	r1, r5
 80001aa:	f242 7010 	movw	r0, #10000	; 0x2710
 80001ae:	f7ff ffcf 	bl	8000150 <_Z8delay_usmP17TIM_HandleTypeDef>
 80001b2:	b2a4      	uxth	r4, r4
 80001b4:	f44f 5100 	mov.w	r1, #8192	; 0x2000
 80001b8:	4630      	mov	r0, r6
 80001ba:	f000 fb1e 	bl	80007fa <HAL_GPIO_TogglePin>
 80001be:	2c00      	cmp	r4, #0
 80001c0:	d1e2      	bne.n	8000188 <_Z12StartBlink01Pv+0x28>
 80001c2:	2401      	movs	r4, #1
 80001c4:	e7d2      	b.n	800016c <_Z12StartBlink01Pv+0xc>
 80001c6:	2200      	movs	r2, #0
 80001c8:	f44f 5100 	mov.w	r1, #8192	; 0x2000
 80001cc:	4630      	mov	r0, r6
 80001ce:	f000 fb0f 	bl	80007f0 <HAL_GPIO_WritePin>
 80001d2:	2400      	movs	r4, #0
 80001d4:	e7ca      	b.n	800016c <_Z12StartBlink01Pv+0xc>
 80001d6:	bf00      	nop
 80001d8:	40011000 	.word	0x40011000
 80001dc:	200001ec 	.word	0x200001ec

080001e0 <_Z12StartBlink02Pv>:
 80001e0:	b508      	push	{r3, lr}
 80001e2:	4c05      	ldr	r4, [pc, #20]	; (80001f8 <_Z12StartBlink02Pv+0x18>)
 80001e4:	f44f 70c8 	mov.w	r0, #400	; 0x190
 80001e8:	f003 f9e4 	bl	80035b4 <osDelay>
 80001ec:	2101      	movs	r1, #1
 80001ee:	6820      	ldr	r0, [r4, #0]
 80001f0:	f003 f93c 	bl	800346c <osThreadFlagsSet>
 80001f4:	e7f6      	b.n	80001e4 <_Z12StartBlink02Pv+0x4>
 80001f6:	bf00      	nop
 80001f8:	2000019c 	.word	0x2000019c

080001fc <_Z18SystemClock_Configv>:
 80001fc:	b570      	push	{r4, r5, r6, lr}
 80001fe:	b094      	sub	sp, #80	; 0x50
 8000200:	2214      	movs	r2, #20
 8000202:	2100      	movs	r1, #0
 8000204:	a80c      	add	r0, sp, #48	; 0x30
 8000206:	f005 f956 	bl	80054b6 <memset>
 800020a:	2214      	movs	r2, #20
 800020c:	2510      	movs	r5, #16
 800020e:	2100      	movs	r1, #0
 8000210:	eb0d 0002 	add.w	r0, sp, r2
 8000214:	f005 f94f 	bl	80054b6 <memset>
 8000218:	462a      	mov	r2, r5
 800021a:	2100      	movs	r1, #0
 800021c:	a801      	add	r0, sp, #4
 800021e:	f005 f94a 	bl	80054b6 <memset>
 8000222:	2401      	movs	r4, #1
 8000224:	f44f 3380 	mov.w	r3, #65536	; 0x10000
 8000228:	2602      	movs	r6, #2
 800022a:	e9cd 430a 	strd	r4, r3, [sp, #40]	; 0x28
 800022e:	e9cd 6311 	strd	r6, r3, [sp, #68]	; 0x44
 8000232:	f44f 1380 	mov.w	r3, #1048576	; 0x100000
 8000236:	a80a      	add	r0, sp, #40	; 0x28
 8000238:	940e      	str	r4, [sp, #56]	; 0x38
 800023a:	9313      	str	r3, [sp, #76]	; 0x4c
 800023c:	f001 f8c6 	bl	80013cc <HAL_RCC_OscConfig>
 8000240:	b108      	cbz	r0, 8000246 <_Z18SystemClock_Configv+0x4a>
 8000242:	b672      	cpsid	i
 8000244:	e7fe      	b.n	8000244 <_Z18SystemClock_Configv+0x48>
 8000246:	230f      	movs	r3, #15
 8000248:	e9cd 3605 	strd	r3, r6, [sp, #20]
 800024c:	f44f 6380 	mov.w	r3, #1024	; 0x400
 8000250:	9007      	str	r0, [sp, #28]
 8000252:	e9cd 3008 	strd	r3, r0, [sp, #32]
 8000256:	4621      	mov	r1, r4
 8000258:	a805      	add	r0, sp, #20
 800025a:	f001 fa8f 	bl	800177c <HAL_RCC_ClockConfig>
 800025e:	b108      	cbz	r0, 8000264 <_Z18SystemClock_Configv+0x68>
 8000260:	b672      	cpsid	i
 8000262:	e7fe      	b.n	8000262 <_Z18SystemClock_Configv+0x66>
 8000264:	f44f 0380 	mov.w	r3, #4194304	; 0x400000
 8000268:	a801      	add	r0, sp, #4
 800026a:	9501      	str	r5, [sp, #4]
 800026c:	9304      	str	r3, [sp, #16]
 800026e:	f001 fb4f 	bl	8001910 <HAL_RCCEx_PeriphCLKConfig>
 8000272:	b108      	cbz	r0, 8000278 <_Z18SystemClock_Configv+0x7c>
 8000274:	b672      	cpsid	i
 8000276:	e7fe      	b.n	8000276 <_Z18SystemClock_Configv+0x7a>
 8000278:	b014      	add	sp, #80	; 0x50
 800027a:	bd70      	pop	{r4, r5, r6, pc}

0800027c <main>:
 800027c:	f04f 0810 	mov.w	r8, #16
 8000280:	b580      	push	{r7, lr}
 8000282:	b08a      	sub	sp, #40	; 0x28
 8000284:	f000 f95c 	bl	8000540 <HAL_Init>
 8000288:	f7ff ffb8 	bl	80001fc <_Z18SystemClock_Configv>
 800028c:	4642      	mov	r2, r8
 800028e:	2100      	movs	r1, #0
 8000290:	a806      	add	r0, sp, #24
 8000292:	f005 f910 	bl	80054b6 <memset>
 8000296:	4b3f      	ldr	r3, [pc, #252]	; (8000394 <main+0x118>)
 8000298:	f44f 5100 	mov.w	r1, #8192	; 0x2000
 800029c:	699a      	ldr	r2, [r3, #24]
 800029e:	483e      	ldr	r0, [pc, #248]	; (8000398 <main+0x11c>)
 80002a0:	ea42 0208 	orr.w	r2, r2, r8
 80002a4:	619a      	str	r2, [r3, #24]
 80002a6:	699a      	ldr	r2, [r3, #24]
 80002a8:	2500      	movs	r5, #0
 80002aa:	ea02 0208 	and.w	r2, r2, r8
 80002ae:	9201      	str	r2, [sp, #4]
 80002b0:	9a01      	ldr	r2, [sp, #4]
 80002b2:	699a      	ldr	r2, [r3, #24]
 80002b4:	4c39      	ldr	r4, [pc, #228]	; (800039c <main+0x120>)
 80002b6:	f042 0220 	orr.w	r2, r2, #32
 80002ba:	619a      	str	r2, [r3, #24]
 80002bc:	699a      	ldr	r2, [r3, #24]
 80002be:	f002 0220 	and.w	r2, r2, #32
 80002c2:	9202      	str	r2, [sp, #8]
 80002c4:	9a02      	ldr	r2, [sp, #8]
 80002c6:	699a      	ldr	r2, [r3, #24]
 80002c8:	f042 0204 	orr.w	r2, r2, #4
 80002cc:	619a      	str	r2, [r3, #24]
 80002ce:	699b      	ldr	r3, [r3, #24]
 80002d0:	2200      	movs	r2, #0
 80002d2:	f003 0304 	and.w	r3, r3, #4
 80002d6:	9303      	str	r3, [sp, #12]
 80002d8:	9b03      	ldr	r3, [sp, #12]
 80002da:	f000 fa89 	bl	80007f0 <HAL_GPIO_WritePin>
 80002de:	f44f 5200 	mov.w	r2, #8192	; 0x2000
 80002e2:	2301      	movs	r3, #1
 80002e4:	e9cd 2306 	strd	r2, r3, [sp, #24]
 80002e8:	2302      	movs	r3, #2
 80002ea:	a906      	add	r1, sp, #24
 80002ec:	482a      	ldr	r0, [pc, #168]	; (8000398 <main+0x11c>)
 80002ee:	e9cd 5308 	strd	r5, r3, [sp, #32]
 80002f2:	f000 f99d 	bl	8000630 <HAL_GPIO_Init>
 80002f6:	4629      	mov	r1, r5
 80002f8:	4642      	mov	r2, r8
 80002fa:	a806      	add	r0, sp, #24
 80002fc:	f005 f8db 	bl	80054b6 <memset>
 8000300:	2348      	movs	r3, #72	; 0x48
 8000302:	4927      	ldr	r1, [pc, #156]	; (80003a0 <main+0x124>)
 8000304:	4620      	mov	r0, r4
 8000306:	e9c4 1300 	strd	r1, r3, [r4]
 800030a:	f64f 73ff 	movw	r3, #65535	; 0xffff
 800030e:	e9c4 3503 	strd	r3, r5, [r4, #12]
 8000312:	2380      	movs	r3, #128	; 0x80
 8000314:	e9cd 5504 	strd	r5, r5, [sp, #16]
 8000318:	60a5      	str	r5, [r4, #8]
 800031a:	61a3      	str	r3, [r4, #24]
 800031c:	f001 fc9e 	bl	8001c5c <HAL_TIM_Base_Init>
 8000320:	b108      	cbz	r0, 8000326 <main+0xaa>
 8000322:	b672      	cpsid	i
 8000324:	e7fe      	b.n	8000324 <main+0xa8>
 8000326:	f44f 5380 	mov.w	r3, #4096	; 0x1000
 800032a:	a906      	add	r1, sp, #24
 800032c:	4620      	mov	r0, r4
 800032e:	9306      	str	r3, [sp, #24]
 8000330:	f001 fcca 	bl	8001cc8 <HAL_TIM_ConfigClockSource>
 8000334:	b108      	cbz	r0, 800033a <main+0xbe>
 8000336:	b672      	cpsid	i
 8000338:	e7fe      	b.n	8000338 <main+0xbc>
 800033a:	e9cd 0004 	strd	r0, r0, [sp, #16]
 800033e:	a904      	add	r1, sp, #16
 8000340:	4620      	mov	r0, r4
 8000342:	f001 fd55 	bl	8001df0 <HAL_TIMEx_MasterConfigSynchronization>
 8000346:	4607      	mov	r7, r0
 8000348:	b108      	cbz	r0, 800034e <main+0xd2>
 800034a:	b672      	cpsid	i
 800034c:	e7fe      	b.n	800034c <main+0xd0>
 800034e:	4e15      	ldr	r6, [pc, #84]	; (80003a4 <main+0x128>)
 8000350:	4b15      	ldr	r3, [pc, #84]	; (80003a8 <main+0x12c>)
 8000352:	2218      	movs	r2, #24
 8000354:	6033      	str	r3, [r6, #0]
 8000356:	f44f 7300 	mov.w	r3, #512	; 0x200
 800035a:	4d14      	ldr	r5, [pc, #80]	; (80003ac <main+0x130>)
 800035c:	e9c6 3205 	strd	r3, r2, [r6, #20]
 8000360:	4a13      	ldr	r2, [pc, #76]	; (80003b0 <main+0x134>)
 8000362:	e9c5 3805 	strd	r3, r8, [r5, #20]
 8000366:	602a      	str	r2, [r5, #0]
 8000368:	f002 ffe8 	bl	800333c <osKernelInitialize>
 800036c:	4632      	mov	r2, r6
 800036e:	4639      	mov	r1, r7
 8000370:	4810      	ldr	r0, [pc, #64]	; (80003b4 <main+0x138>)
 8000372:	f003 f81f 	bl	80033b4 <osThreadNew>
 8000376:	4b10      	ldr	r3, [pc, #64]	; (80003b8 <main+0x13c>)
 8000378:	462a      	mov	r2, r5
 800037a:	6018      	str	r0, [r3, #0]
 800037c:	4639      	mov	r1, r7
 800037e:	480f      	ldr	r0, [pc, #60]	; (80003bc <main+0x140>)
 8000380:	f003 f818 	bl	80033b4 <osThreadNew>
 8000384:	4b0e      	ldr	r3, [pc, #56]	; (80003c0 <main+0x144>)
 8000386:	6018      	str	r0, [r3, #0]
 8000388:	4620      	mov	r0, r4
 800038a:	f001 fb39 	bl	8001a00 <HAL_TIM_Base_Start>
 800038e:	f002 fff1 	bl	8003374 <osKernelStart>
 8000392:	e7fe      	b.n	8000392 <main+0x116>
 8000394:	40021000 	.word	0x40021000
 8000398:	40011000 	.word	0x40011000
 800039c:	200001ec 	.word	0x200001ec
 80003a0:	40000400 	.word	0x40000400
 80003a4:	200001a0 	.word	0x200001a0
 80003a8:	080054f0 	.word	0x080054f0
 80003ac:	200001c8 	.word	0x200001c8
 80003b0:	080054f8 	.word	0x080054f8
 80003b4:	08000161 	.word	0x08000161
 80003b8:	2000019c 	.word	0x2000019c
 80003bc:	080001e1 	.word	0x080001e1
 80003c0:	200001c4 	.word	0x200001c4

080003c4 <HAL_TIM_PeriodElapsedCallback>:
 80003c4:	6802      	ldr	r2, [r0, #0]
 80003c6:	4b03      	ldr	r3, [pc, #12]	; (80003d4 <HAL_TIM_PeriodElapsedCallback+0x10>)
 80003c8:	429a      	cmp	r2, r3
 80003ca:	d101      	bne.n	80003d0 <HAL_TIM_PeriodElapsedCallback+0xc>
 80003cc:	f000 b8ca 	b.w	8000564 <HAL_IncTick>
 80003d0:	4770      	bx	lr
 80003d2:	bf00      	nop
 80003d4:	40000800 	.word	0x40000800

080003d8 <Error_Handler>:
 80003d8:	b672      	cpsid	i
 80003da:	e7fe      	b.n	80003da <Error_Handler+0x2>

080003dc <HAL_MspInit>:
 80003dc:	4b11      	ldr	r3, [pc, #68]	; (8000424 <HAL_MspInit+0x48>)
 80003de:	b507      	push	{r0, r1, r2, lr}
 80003e0:	699a      	ldr	r2, [r3, #24]
 80003e2:	210f      	movs	r1, #15
 80003e4:	f042 0201 	orr.w	r2, r2, #1
 80003e8:	619a      	str	r2, [r3, #24]
 80003ea:	699a      	ldr	r2, [r3, #24]
 80003ec:	f06f 0001 	mvn.w	r0, #1
 80003f0:	f002 0201 	and.w	r2, r2, #1
 80003f4:	9200      	str	r2, [sp, #0]
 80003f6:	9a00      	ldr	r2, [sp, #0]
 80003f8:	69da      	ldr	r2, [r3, #28]
 80003fa:	f042 5280 	orr.w	r2, r2, #268435456	; 0x10000000
 80003fe:	61da      	str	r2, [r3, #28]
 8000400:	69db      	ldr	r3, [r3, #28]
 8000402:	2200      	movs	r2, #0
 8000404:	f003 5380 	and.w	r3, r3, #268435456	; 0x10000000
 8000408:	9301      	str	r3, [sp, #4]
 800040a:	9b01      	ldr	r3, [sp, #4]
 800040c:	f000 f8ce 	bl	80005ac <HAL_NVIC_SetPriority>
 8000410:	4a05      	ldr	r2, [pc, #20]	; (8000428 <HAL_MspInit+0x4c>)
 8000412:	6853      	ldr	r3, [r2, #4]
 8000414:	f023 63e0 	bic.w	r3, r3, #117440512	; 0x7000000
 8000418:	f043 7300 	orr.w	r3, r3, #33554432	; 0x2000000
 800041c:	6053      	str	r3, [r2, #4]
 800041e:	b003      	add	sp, #12
 8000420:	f85d fb04 	ldr.w	pc, [sp], #4
 8000424:	40021000 	.word	0x40021000
 8000428:	40010000 	.word	0x40010000

0800042c <HAL_TIM_Base_MspInit>:
 800042c:	6802      	ldr	r2, [r0, #0]
 800042e:	4b08      	ldr	r3, [pc, #32]	; (8000450 <HAL_TIM_Base_MspInit+0x24>)
 8000430:	b082      	sub	sp, #8
 8000432:	429a      	cmp	r2, r3
 8000434:	d10a      	bne.n	800044c <HAL_TIM_Base_MspInit+0x20>
 8000436:	f503 3303 	add.w	r3, r3, #134144	; 0x20c00
 800043a:	69da      	ldr	r2, [r3, #28]
 800043c:	f042 0202 	orr.w	r2, r2, #2
 8000440:	61da      	str	r2, [r3, #28]
 8000442:	69db      	ldr	r3, [r3, #28]
 8000444:	f003 0302 	and.w	r3, r3, #2
 8000448:	9301      	str	r3, [sp, #4]
 800044a:	9b01      	ldr	r3, [sp, #4]
 800044c:	b002      	add	sp, #8
 800044e:	4770      	bx	lr
 8000450:	40000400 	.word	0x40000400

08000454 <HAL_InitTick>:
 8000454:	b510      	push	{r4, lr}
 8000456:	4601      	mov	r1, r0
 8000458:	b088      	sub	sp, #32
 800045a:	2200      	movs	r2, #0
 800045c:	201e      	movs	r0, #30
 800045e:	f000 f8a5 	bl	80005ac <HAL_NVIC_SetPriority>
 8000462:	201e      	movs	r0, #30
 8000464:	f000 f8d6 	bl	8000614 <HAL_NVIC_EnableIRQ>
 8000468:	4b14      	ldr	r3, [pc, #80]	; (80004bc <HAL_InitTick+0x68>)
 800046a:	a901      	add	r1, sp, #4
 800046c:	69da      	ldr	r2, [r3, #28]
 800046e:	a803      	add	r0, sp, #12
 8000470:	f042 0204 	orr.w	r2, r2, #4
 8000474:	61da      	str	r2, [r3, #28]
 8000476:	69db      	ldr	r3, [r3, #28]
 8000478:	4c11      	ldr	r4, [pc, #68]	; (80004c0 <HAL_InitTick+0x6c>)
 800047a:	f003 0304 	and.w	r3, r3, #4
 800047e:	9302      	str	r3, [sp, #8]
 8000480:	9b02      	ldr	r3, [sp, #8]
 8000482:	f001 fa27 	bl	80018d4 <HAL_RCC_GetClockConfig>
 8000486:	f001 fa15 	bl	80018b4 <HAL_RCC_GetPCLK1Freq>
 800048a:	4b0e      	ldr	r3, [pc, #56]	; (80004c4 <HAL_InitTick+0x70>)
 800048c:	0040      	lsls	r0, r0, #1
 800048e:	6023      	str	r3, [r4, #0]
 8000490:	f240 33e7 	movw	r3, #999	; 0x3e7
 8000494:	60e3      	str	r3, [r4, #12]
 8000496:	4b0c      	ldr	r3, [pc, #48]	; (80004c8 <HAL_InitTick+0x74>)
 8000498:	fbb0 f0f3 	udiv	r0, r0, r3
 800049c:	2300      	movs	r3, #0
 800049e:	3801      	subs	r0, #1
 80004a0:	6060      	str	r0, [r4, #4]
 80004a2:	4620      	mov	r0, r4
 80004a4:	6123      	str	r3, [r4, #16]
 80004a6:	60a3      	str	r3, [r4, #8]
 80004a8:	f001 fbd8 	bl	8001c5c <HAL_TIM_Base_Init>
 80004ac:	b920      	cbnz	r0, 80004b8 <HAL_InitTick+0x64>
 80004ae:	4620      	mov	r0, r4
 80004b0:	f001 facc 	bl	8001a4c <HAL_TIM_Base_Start_IT>
 80004b4:	b008      	add	sp, #32
 80004b6:	bd10      	pop	{r4, pc}
 80004b8:	2001      	movs	r0, #1
 80004ba:	e7fb      	b.n	80004b4 <HAL_InitTick+0x60>
 80004bc:	40021000 	.word	0x40021000
 80004c0:	20001d5c 	.word	0x20001d5c
 80004c4:	40000800 	.word	0x40000800
 80004c8:	000f4240 	.word	0x000f4240

080004cc <NMI_Handler>:
 80004cc:	e7fe      	b.n	80004cc <NMI_Handler>

080004ce <HardFault_Handler>:
 80004ce:	e7fe      	b.n	80004ce <HardFault_Handler>

080004d0 <MemManage_Handler>:
 80004d0:	e7fe      	b.n	80004d0 <MemManage_Handler>

080004d2 <BusFault_Handler>:
 80004d2:	e7fe      	b.n	80004d2 <BusFault_Handler>

080004d4 <UsageFault_Handler>:
 80004d4:	e7fe      	b.n	80004d4 <UsageFault_Handler>

080004d6 <DebugMon_Handler>:
 80004d6:	4770      	bx	lr

080004d8 <USB_LP_CAN1_RX0_IRQHandler>:
 80004d8:	4801      	ldr	r0, [pc, #4]	; (80004e0 <USB_LP_CAN1_RX0_IRQHandler+0x8>)
 80004da:	f000 ba3d 	b.w	8000958 <HAL_PCD_IRQHandler>
 80004de:	bf00      	nop
 80004e0:	20002a7c 	.word	0x20002a7c

080004e4 <TIM4_IRQHandler>:
 80004e4:	4801      	ldr	r0, [pc, #4]	; (80004ec <TIM4_IRQHandler+0x8>)
 80004e6:	f001 badf 	b.w	8001aa8 <HAL_TIM_IRQHandler>
 80004ea:	bf00      	nop
 80004ec:	20001d5c 	.word	0x20001d5c

080004f0 <SystemInit>:
 80004f0:	4770      	bx	lr
	...

080004f4 <Reset_Handler>:
 80004f4:	2100      	movs	r1, #0
 80004f6:	e003      	b.n	8000500 <LoopCopyDataInit>

080004f8 <CopyDataInit>:
 80004f8:	4b0b      	ldr	r3, [pc, #44]	; (8000528 <LoopFillZerobss+0x14>)
 80004fa:	585b      	ldr	r3, [r3, r1]
 80004fc:	5043      	str	r3, [r0, r1]
 80004fe:	3104      	adds	r1, #4

08000500 <LoopCopyDataInit>:
 8000500:	480a      	ldr	r0, [pc, #40]	; (800052c <LoopFillZerobss+0x18>)
 8000502:	4b0b      	ldr	r3, [pc, #44]	; (8000530 <LoopFillZerobss+0x1c>)
 8000504:	1842      	adds	r2, r0, r1
 8000506:	429a      	cmp	r2, r3
 8000508:	d3f6      	bcc.n	80004f8 <CopyDataInit>
 800050a:	4a0a      	ldr	r2, [pc, #40]	; (8000534 <LoopFillZerobss+0x20>)
 800050c:	e002      	b.n	8000514 <LoopFillZerobss>

0800050e <FillZerobss>:
 800050e:	2300      	movs	r3, #0
 8000510:	f842 3b04 	str.w	r3, [r2], #4

08000514 <LoopFillZerobss>:
 8000514:	4b08      	ldr	r3, [pc, #32]	; (8000538 <LoopFillZerobss+0x24>)
 8000516:	429a      	cmp	r2, r3
 8000518:	d3f9      	bcc.n	800050e <FillZerobss>
 800051a:	f7ff ffe9 	bl	80004f0 <SystemInit>
 800051e:	f004 ff9b 	bl	8005458 <__libc_init_array>
 8000522:	f7ff feab 	bl	800027c <main>
 8000526:	4770      	bx	lr
 8000528:	08005578 	.word	0x08005578
 800052c:	20000000 	.word	0x20000000
 8000530:	20000180 	.word	0x20000180
 8000534:	20000180 	.word	0x20000180
 8000538:	20002d68 	.word	0x20002d68

0800053c <ADC1_2_IRQHandler>:
 800053c:	e7fe      	b.n	800053c <ADC1_2_IRQHandler>
	...

08000540 <HAL_Init>:
 8000540:	4a07      	ldr	r2, [pc, #28]	; (8000560 <HAL_Init+0x20>)
 8000542:	b508      	push	{r3, lr}
 8000544:	6813      	ldr	r3, [r2, #0]
 8000546:	2003      	movs	r0, #3
 8000548:	f043 0310 	orr.w	r3, r3, #16
 800054c:	6013      	str	r3, [r2, #0]
 800054e:	f000 f81b 	bl	8000588 <HAL_NVIC_SetPriorityGrouping>
 8000552:	2000      	movs	r0, #0
 8000554:	f7ff ff7e 	bl	8000454 <HAL_InitTick>
 8000558:	f7ff ff40 	bl	80003dc <HAL_MspInit>
 800055c:	2000      	movs	r0, #0
 800055e:	bd08      	pop	{r3, pc}
 8000560:	40022000 	.word	0x40022000

08000564 <HAL_IncTick>:
 8000564:	4a03      	ldr	r2, [pc, #12]	; (8000574 <HAL_IncTick+0x10>)
 8000566:	4b04      	ldr	r3, [pc, #16]	; (8000578 <HAL_IncTick+0x14>)
 8000568:	6811      	ldr	r1, [r2, #0]
 800056a:	781b      	ldrb	r3, [r3, #0]
 800056c:	440b      	add	r3, r1
 800056e:	6013      	str	r3, [r2, #0]
 8000570:	4770      	bx	lr
 8000572:	bf00      	nop
 8000574:	20001da4 	.word	0x20001da4
 8000578:	20000004 	.word	0x20000004

0800057c <HAL_GetTick>:
 800057c:	4b01      	ldr	r3, [pc, #4]	; (8000584 <HAL_GetTick+0x8>)
 800057e:	6818      	ldr	r0, [r3, #0]
 8000580:	4770      	bx	lr
 8000582:	bf00      	nop
 8000584:	20001da4 	.word	0x20001da4

08000588 <HAL_NVIC_SetPriorityGrouping>:
 8000588:	4a07      	ldr	r2, [pc, #28]	; (80005a8 <HAL_NVIC_SetPriorityGrouping+0x20>)
 800058a:	0200      	lsls	r0, r0, #8
 800058c:	68d3      	ldr	r3, [r2, #12]
 800058e:	f400 60e0 	and.w	r0, r0, #1792	; 0x700
 8000592:	f423 63e0 	bic.w	r3, r3, #1792	; 0x700
 8000596:	041b      	lsls	r3, r3, #16
 8000598:	0c1b      	lsrs	r3, r3, #16
 800059a:	f043 63bf 	orr.w	r3, r3, #100139008	; 0x5f80000
 800059e:	f443 3300 	orr.w	r3, r3, #131072	; 0x20000
 80005a2:	4303      	orrs	r3, r0
 80005a4:	60d3      	str	r3, [r2, #12]
 80005a6:	4770      	bx	lr
 80005a8:	e000ed00 	.word	0xe000ed00

080005ac <HAL_NVIC_SetPriority>:
 80005ac:	4b17      	ldr	r3, [pc, #92]	; (800060c <HAL_NVIC_SetPriority+0x60>)
 80005ae:	b570      	push	{r4, r5, r6, lr}
 80005b0:	68dc      	ldr	r4, [r3, #12]
 80005b2:	f04f 36ff 	mov.w	r6, #4294967295
 80005b6:	f3c4 2402 	ubfx	r4, r4, #8, #3
 80005ba:	f1c4 0507 	rsb	r5, r4, #7
 80005be:	2d04      	cmp	r5, #4
 80005c0:	f104 0304 	add.w	r3, r4, #4
 80005c4:	bf28      	it	cs
 80005c6:	2504      	movcs	r5, #4
 80005c8:	2b06      	cmp	r3, #6
 80005ca:	bf98      	it	ls
 80005cc:	2400      	movls	r4, #0
 80005ce:	fa06 f305 	lsl.w	r3, r6, r5
 80005d2:	bf88      	it	hi
 80005d4:	3c03      	subhi	r4, #3
 80005d6:	ea21 0303 	bic.w	r3, r1, r3
 80005da:	40a3      	lsls	r3, r4
 80005dc:	fa06 f404 	lsl.w	r4, r6, r4
 80005e0:	ea22 0404 	bic.w	r4, r2, r4
 80005e4:	2800      	cmp	r0, #0
 80005e6:	ea43 0304 	orr.w	r3, r3, r4
 80005ea:	bfa8      	it	ge
 80005ec:	f100 4060 	addge.w	r0, r0, #3758096384	; 0xe0000000
 80005f0:	ea4f 1303 	mov.w	r3, r3, lsl #4
 80005f4:	bfb8      	it	lt
 80005f6:	4a06      	ldrlt	r2, [pc, #24]	; (8000610 <HAL_NVIC_SetPriority+0x64>)
 80005f8:	b2db      	uxtb	r3, r3
 80005fa:	bfab      	itete	ge
 80005fc:	f500 4061 	addge.w	r0, r0, #57600	; 0xe100
 8000600:	f000 000f 	andlt.w	r0, r0, #15
 8000604:	f880 3300 	strbge.w	r3, [r0, #768]	; 0x300
 8000608:	5413      	strblt	r3, [r2, r0]
 800060a:	bd70      	pop	{r4, r5, r6, pc}
 800060c:	e000ed00 	.word	0xe000ed00
 8000610:	e000ed14 	.word	0xe000ed14

08000614 <HAL_NVIC_EnableIRQ>:
 8000614:	2800      	cmp	r0, #0
 8000616:	db08      	blt.n	800062a <HAL_NVIC_EnableIRQ+0x16>
 8000618:	2301      	movs	r3, #1
 800061a:	0942      	lsrs	r2, r0, #5
 800061c:	f000 001f 	and.w	r0, r0, #31
 8000620:	fa03 f000 	lsl.w	r0, r3, r0
 8000624:	4b01      	ldr	r3, [pc, #4]	; (800062c <HAL_NVIC_EnableIRQ+0x18>)
 8000626:	f843 0022 	str.w	r0, [r3, r2, lsl #2]
 800062a:	4770      	bx	lr
 800062c:	e000e100 	.word	0xe000e100

08000630 <HAL_GPIO_Init>:
 8000630:	e92d 4ff7 	stmdb	sp!, {r0, r1, r2, r4, r5, r6, r7, r8, r9, sl, fp, lr}
 8000634:	2400      	movs	r4, #0
 8000636:	4626      	mov	r6, r4
 8000638:	4b65      	ldr	r3, [pc, #404]	; (80007d0 <HAL_GPIO_Init+0x1a0>)
 800063a:	f8df c1a4 	ldr.w	ip, [pc, #420]	; 80007e0 <HAL_GPIO_Init+0x1b0>
 800063e:	f8df e1a4 	ldr.w	lr, [pc, #420]	; 80007e4 <HAL_GPIO_Init+0x1b4>
 8000642:	680a      	ldr	r2, [r1, #0]
 8000644:	fa32 f506 	lsrs.w	r5, r2, r6
 8000648:	d102      	bne.n	8000650 <HAL_GPIO_Init+0x20>
 800064a:	b003      	add	sp, #12
 800064c:	e8bd 8ff0 	ldmia.w	sp!, {r4, r5, r6, r7, r8, r9, sl, fp, pc}
 8000650:	f04f 0801 	mov.w	r8, #1
 8000654:	fa08 f806 	lsl.w	r8, r8, r6
 8000658:	ea02 0208 	and.w	r2, r2, r8
 800065c:	4590      	cmp	r8, r2
 800065e:	d17e      	bne.n	800075e <HAL_GPIO_Init+0x12e>
 8000660:	684d      	ldr	r5, [r1, #4]
 8000662:	2d12      	cmp	r5, #18
 8000664:	f000 80a9 	beq.w	80007ba <HAL_GPIO_Init+0x18a>
 8000668:	f200 8082 	bhi.w	8000770 <HAL_GPIO_Init+0x140>
 800066c:	2d02      	cmp	r5, #2
 800066e:	f000 80a1 	beq.w	80007b4 <HAL_GPIO_Init+0x184>
 8000672:	d876      	bhi.n	8000762 <HAL_GPIO_Init+0x132>
 8000674:	2d00      	cmp	r5, #0
 8000676:	f000 8088 	beq.w	800078a <HAL_GPIO_Init+0x15a>
 800067a:	2d01      	cmp	r5, #1
 800067c:	f000 8098 	beq.w	80007b0 <HAL_GPIO_Init+0x180>
 8000680:	f04f 090f 	mov.w	r9, #15
 8000684:	2aff      	cmp	r2, #255	; 0xff
 8000686:	bf93      	iteet	ls
 8000688:	4682      	movls	sl, r0
 800068a:	f106 4580 	addhi.w	r5, r6, #1073741824	; 0x40000000
 800068e:	3d08      	subhi	r5, #8
 8000690:	f8d0 b000 	ldrls.w	fp, [r0]
 8000694:	bf92      	itee	ls
 8000696:	00b5      	lslls	r5, r6, #2
 8000698:	f8d0 b004 	ldrhi.w	fp, [r0, #4]
 800069c:	00ad      	lslhi	r5, r5, #2
 800069e:	fa09 f805 	lsl.w	r8, r9, r5
 80006a2:	ea2b 0808 	bic.w	r8, fp, r8
 80006a6:	fa04 f505 	lsl.w	r5, r4, r5
 80006aa:	bf88      	it	hi
 80006ac:	f100 0a04 	addhi.w	sl, r0, #4
 80006b0:	ea48 0505 	orr.w	r5, r8, r5
 80006b4:	f8ca 5000 	str.w	r5, [sl]
 80006b8:	f8d1 a004 	ldr.w	sl, [r1, #4]
 80006bc:	f01a 5f80 	tst.w	sl, #268435456	; 0x10000000
 80006c0:	d04d      	beq.n	800075e <HAL_GPIO_Init+0x12e>
 80006c2:	4f44      	ldr	r7, [pc, #272]	; (80007d4 <HAL_GPIO_Init+0x1a4>)
 80006c4:	f026 0803 	bic.w	r8, r6, #3
 80006c8:	69bd      	ldr	r5, [r7, #24]
 80006ca:	f108 4880 	add.w	r8, r8, #1073741824	; 0x40000000
 80006ce:	f045 0501 	orr.w	r5, r5, #1
 80006d2:	61bd      	str	r5, [r7, #24]
 80006d4:	69bd      	ldr	r5, [r7, #24]
 80006d6:	f508 3880 	add.w	r8, r8, #65536	; 0x10000
 80006da:	f005 0501 	and.w	r5, r5, #1
 80006de:	9501      	str	r5, [sp, #4]
 80006e0:	f006 0b03 	and.w	fp, r6, #3
 80006e4:	9d01      	ldr	r5, [sp, #4]
 80006e6:	ea4f 0b8b 	mov.w	fp, fp, lsl #2
 80006ea:	f8d8 5008 	ldr.w	r5, [r8, #8]
 80006ee:	fa09 f90b 	lsl.w	r9, r9, fp
 80006f2:	ea25 0909 	bic.w	r9, r5, r9
 80006f6:	4d38      	ldr	r5, [pc, #224]	; (80007d8 <HAL_GPIO_Init+0x1a8>)
 80006f8:	42a8      	cmp	r0, r5
 80006fa:	d063      	beq.n	80007c4 <HAL_GPIO_Init+0x194>
 80006fc:	f505 6580 	add.w	r5, r5, #1024	; 0x400
 8000700:	42a8      	cmp	r0, r5
 8000702:	d061      	beq.n	80007c8 <HAL_GPIO_Init+0x198>
 8000704:	f505 6580 	add.w	r5, r5, #1024	; 0x400
 8000708:	42a8      	cmp	r0, r5
 800070a:	d05f      	beq.n	80007cc <HAL_GPIO_Init+0x19c>
 800070c:	f505 6580 	add.w	r5, r5, #1024	; 0x400
 8000710:	42a8      	cmp	r0, r5
 8000712:	bf0c      	ite	eq
 8000714:	2503      	moveq	r5, #3
 8000716:	2504      	movne	r5, #4
 8000718:	fa05 f50b 	lsl.w	r5, r5, fp
 800071c:	ea45 0509 	orr.w	r5, r5, r9
 8000720:	f8c8 5008 	str.w	r5, [r8, #8]
 8000724:	681d      	ldr	r5, [r3, #0]
 8000726:	f41a 3f80 	tst.w	sl, #65536	; 0x10000
 800072a:	bf14      	ite	ne
 800072c:	4315      	orrne	r5, r2
 800072e:	4395      	biceq	r5, r2
 8000730:	601d      	str	r5, [r3, #0]
 8000732:	685d      	ldr	r5, [r3, #4]
 8000734:	f41a 3f00 	tst.w	sl, #131072	; 0x20000
 8000738:	bf14      	ite	ne
 800073a:	4315      	orrne	r5, r2
 800073c:	4395      	biceq	r5, r2
 800073e:	605d      	str	r5, [r3, #4]
 8000740:	689d      	ldr	r5, [r3, #8]
 8000742:	f41a 1f80 	tst.w	sl, #1048576	; 0x100000
 8000746:	bf14      	ite	ne
 8000748:	4315      	orrne	r5, r2
 800074a:	4395      	biceq	r5, r2
 800074c:	609d      	str	r5, [r3, #8]
 800074e:	68dd      	ldr	r5, [r3, #12]
 8000750:	f41a 1f00 	tst.w	sl, #2097152	; 0x200000
 8000754:	bf14      	ite	ne
 8000756:	432a      	orrne	r2, r5
 8000758:	ea25 0202 	biceq.w	r2, r5, r2
 800075c:	60da      	str	r2, [r3, #12]
 800075e:	3601      	adds	r6, #1
 8000760:	e76f      	b.n	8000642 <HAL_GPIO_Init+0x12>
 8000762:	2d03      	cmp	r5, #3
 8000764:	d022      	beq.n	80007ac <HAL_GPIO_Init+0x17c>
 8000766:	2d11      	cmp	r5, #17
 8000768:	d18a      	bne.n	8000680 <HAL_GPIO_Init+0x50>
 800076a:	68cc      	ldr	r4, [r1, #12]
 800076c:	3404      	adds	r4, #4
 800076e:	e787      	b.n	8000680 <HAL_GPIO_Init+0x50>
 8000770:	4f1a      	ldr	r7, [pc, #104]	; (80007dc <HAL_GPIO_Init+0x1ac>)
 8000772:	42bd      	cmp	r5, r7
 8000774:	d009      	beq.n	800078a <HAL_GPIO_Init+0x15a>
 8000776:	d812      	bhi.n	800079e <HAL_GPIO_Init+0x16e>
 8000778:	f8df 906c 	ldr.w	r9, [pc, #108]	; 80007e8 <HAL_GPIO_Init+0x1b8>
 800077c:	454d      	cmp	r5, r9
 800077e:	d004      	beq.n	800078a <HAL_GPIO_Init+0x15a>
 8000780:	f509 3980 	add.w	r9, r9, #65536	; 0x10000
 8000784:	454d      	cmp	r5, r9
 8000786:	f47f af7b 	bne.w	8000680 <HAL_GPIO_Init+0x50>
 800078a:	688c      	ldr	r4, [r1, #8]
 800078c:	b1c4      	cbz	r4, 80007c0 <HAL_GPIO_Init+0x190>
 800078e:	2c01      	cmp	r4, #1
 8000790:	bf0c      	ite	eq
 8000792:	f8c0 8010 	streq.w	r8, [r0, #16]
 8000796:	f8c0 8014 	strne.w	r8, [r0, #20]
 800079a:	2408      	movs	r4, #8
 800079c:	e770      	b.n	8000680 <HAL_GPIO_Init+0x50>
 800079e:	4565      	cmp	r5, ip
 80007a0:	d0f3      	beq.n	800078a <HAL_GPIO_Init+0x15a>
 80007a2:	4575      	cmp	r5, lr
 80007a4:	d0f1      	beq.n	800078a <HAL_GPIO_Init+0x15a>
 80007a6:	f8df 9044 	ldr.w	r9, [pc, #68]	; 80007ec <HAL_GPIO_Init+0x1bc>
 80007aa:	e7eb      	b.n	8000784 <HAL_GPIO_Init+0x154>
 80007ac:	2400      	movs	r4, #0
 80007ae:	e767      	b.n	8000680 <HAL_GPIO_Init+0x50>
 80007b0:	68cc      	ldr	r4, [r1, #12]
 80007b2:	e765      	b.n	8000680 <HAL_GPIO_Init+0x50>
 80007b4:	68cc      	ldr	r4, [r1, #12]
 80007b6:	3408      	adds	r4, #8
 80007b8:	e762      	b.n	8000680 <HAL_GPIO_Init+0x50>
 80007ba:	68cc      	ldr	r4, [r1, #12]
 80007bc:	340c      	adds	r4, #12
 80007be:	e75f      	b.n	8000680 <HAL_GPIO_Init+0x50>
 80007c0:	2404      	movs	r4, #4
 80007c2:	e75d      	b.n	8000680 <HAL_GPIO_Init+0x50>
 80007c4:	2500      	movs	r5, #0
 80007c6:	e7a7      	b.n	8000718 <HAL_GPIO_Init+0xe8>
 80007c8:	2501      	movs	r5, #1
 80007ca:	e7a5      	b.n	8000718 <HAL_GPIO_Init+0xe8>
 80007cc:	2502      	movs	r5, #2
 80007ce:	e7a3      	b.n	8000718 <HAL_GPIO_Init+0xe8>
 80007d0:	40010400 	.word	0x40010400
 80007d4:	40021000 	.word	0x40021000
 80007d8:	40010800 	.word	0x40010800
 80007dc:	10210000 	.word	0x10210000
 80007e0:	10310000 	.word	0x10310000
 80007e4:	10320000 	.word	0x10320000
 80007e8:	10110000 	.word	0x10110000
 80007ec:	10220000 	.word	0x10220000

080007f0 <HAL_GPIO_WritePin>:
 80007f0:	b10a      	cbz	r2, 80007f6 <HAL_GPIO_WritePin+0x6>
 80007f2:	6101      	str	r1, [r0, #16]
 80007f4:	4770      	bx	lr
 80007f6:	0409      	lsls	r1, r1, #16
 80007f8:	e7fb      	b.n	80007f2 <HAL_GPIO_WritePin+0x2>

080007fa <HAL_GPIO_TogglePin>:
 80007fa:	68c3      	ldr	r3, [r0, #12]
 80007fc:	ea01 0203 	and.w	r2, r1, r3
 8000800:	ea21 0103 	bic.w	r1, r1, r3
 8000804:	ea41 4102 	orr.w	r1, r1, r2, lsl #16
 8000808:	6101      	str	r1, [r0, #16]
 800080a:	4770      	bx	lr

0800080c <HAL_PCD_Init>:
 800080c:	b5f0      	push	{r4, r5, r6, r7, lr}
 800080e:	4604      	mov	r4, r0
 8000810:	b087      	sub	sp, #28
 8000812:	b310      	cbz	r0, 800085a <HAL_PCD_Init+0x4e>
 8000814:	f890 32a9 	ldrb.w	r3, [r0, #681]	; 0x2a9
 8000818:	f003 02ff 	and.w	r2, r3, #255	; 0xff
 800081c:	b91b      	cbnz	r3, 8000826 <HAL_PCD_Init+0x1a>
 800081e:	f880 22a8 	strb.w	r2, [r0, #680]	; 0x2a8
 8000822:	f004 fce7 	bl	80051f4 <HAL_PCD_MspInit>
 8000826:	4625      	mov	r5, r4
 8000828:	2303      	movs	r3, #3
 800082a:	466e      	mov	r6, sp
 800082c:	f855 0b10 	ldr.w	r0, [r5], #16
 8000830:	f884 32a9 	strb.w	r3, [r4, #681]	; 0x2a9
 8000834:	f001 fb20 	bl	8001e78 <USB_DisableGlobalInt>
 8000838:	cd0f      	ldmia	r5!, {r0, r1, r2, r3}
 800083a:	c60f      	stmia	r6!, {r0, r1, r2, r3}
 800083c:	682b      	ldr	r3, [r5, #0]
 800083e:	4625      	mov	r5, r4
 8000840:	6033      	str	r3, [r6, #0]
 8000842:	1d27      	adds	r7, r4, #4
 8000844:	e897 000e 	ldmia.w	r7, {r1, r2, r3}
 8000848:	f855 0b10 	ldr.w	r0, [r5], #16
 800084c:	f001 fb04 	bl	8001e58 <USB_CoreInit>
 8000850:	4606      	mov	r6, r0
 8000852:	b120      	cbz	r0, 800085e <HAL_PCD_Init+0x52>
 8000854:	2302      	movs	r3, #2
 8000856:	f884 32a9 	strb.w	r3, [r4, #681]	; 0x2a9
 800085a:	2501      	movs	r5, #1
 800085c:	e04b      	b.n	80008f6 <HAL_PCD_Init+0xea>
 800085e:	4601      	mov	r1, r0
 8000860:	6820      	ldr	r0, [r4, #0]
 8000862:	f001 fb13 	bl	8001e8c <USB_SetCurrentMode>
 8000866:	4630      	mov	r0, r6
 8000868:	f04f 0e01 	mov.w	lr, #1
 800086c:	2628      	movs	r6, #40	; 0x28
 800086e:	4601      	mov	r1, r0
 8000870:	f8d4 c004 	ldr.w	ip, [r4, #4]
 8000874:	b2c2      	uxtb	r2, r0
 8000876:	4594      	cmp	ip, r2
 8000878:	f100 0001 	add.w	r0, r0, #1
 800087c:	d818      	bhi.n	80008b0 <HAL_PCD_Init+0xa4>
 800087e:	2300      	movs	r3, #0
 8000880:	2628      	movs	r6, #40	; 0x28
 8000882:	4619      	mov	r1, r3
 8000884:	b2d8      	uxtb	r0, r3
 8000886:	4584      	cmp	ip, r0
 8000888:	f103 0301 	add.w	r3, r3, #1
 800088c:	d81d      	bhi.n	80008ca <HAL_PCD_Init+0xbe>
 800088e:	cd0f      	ldmia	r5!, {r0, r1, r2, r3}
 8000890:	466e      	mov	r6, sp
 8000892:	c60f      	stmia	r6!, {r0, r1, r2, r3}
 8000894:	682b      	ldr	r3, [r5, #0]
 8000896:	6033      	str	r3, [r6, #0]
 8000898:	e897 000e 	ldmia.w	r7, {r1, r2, r3}
 800089c:	6820      	ldr	r0, [r4, #0]
 800089e:	f001 faf7 	bl	8001e90 <USB_DevInit>
 80008a2:	2301      	movs	r3, #1
 80008a4:	4605      	mov	r5, r0
 80008a6:	b1f8      	cbz	r0, 80008e8 <HAL_PCD_Init+0xdc>
 80008a8:	2202      	movs	r2, #2
 80008aa:	f884 22a9 	strb.w	r2, [r4, #681]	; 0x2a9
 80008ae:	e7d4      	b.n	800085a <HAL_PCD_Init+0x4e>
 80008b0:	fb06 4302 	mla	r3, r6, r2, r4
 80008b4:	f883 e029 	strb.w	lr, [r3, #41]	; 0x29
 80008b8:	f883 2028 	strb.w	r2, [r3, #40]	; 0x28
 80008bc:	86da      	strh	r2, [r3, #54]	; 0x36
 80008be:	f883 102b 	strb.w	r1, [r3, #43]	; 0x2b
 80008c2:	e9c3 110e 	strd	r1, r1, [r3, #56]	; 0x38
 80008c6:	6419      	str	r1, [r3, #64]	; 0x40
 80008c8:	e7d4      	b.n	8000874 <HAL_PCD_Init+0x68>
 80008ca:	fb06 4200 	mla	r2, r6, r0, r4
 80008ce:	f882 1169 	strb.w	r1, [r2, #361]	; 0x169
 80008d2:	f882 0168 	strb.w	r0, [r2, #360]	; 0x168
 80008d6:	f882 116b 	strb.w	r1, [r2, #363]	; 0x16b
 80008da:	f8c2 1178 	str.w	r1, [r2, #376]	; 0x178
 80008de:	f8c2 117c 	str.w	r1, [r2, #380]	; 0x17c
 80008e2:	f8c2 1180 	str.w	r1, [r2, #384]	; 0x180
 80008e6:	e7cd      	b.n	8000884 <HAL_PCD_Init+0x78>
 80008e8:	f884 0024 	strb.w	r0, [r4, #36]	; 0x24
 80008ec:	f884 32a9 	strb.w	r3, [r4, #681]	; 0x2a9
 80008f0:	6820      	ldr	r0, [r4, #0]
 80008f2:	f001 fd4c 	bl	800238e <USB_DevDisconnect>
 80008f6:	4628      	mov	r0, r5
 80008f8:	b007      	add	sp, #28
 80008fa:	bdf0      	pop	{r4, r5, r6, r7, pc}

080008fc <HAL_PCD_Start>:
 80008fc:	b538      	push	{r3, r4, r5, lr}
 80008fe:	f890 32a8 	ldrb.w	r3, [r0, #680]	; 0x2a8
 8000902:	4604      	mov	r4, r0
 8000904:	2b01      	cmp	r3, #1
 8000906:	d010      	beq.n	800092a <HAL_PCD_Start+0x2e>
 8000908:	2501      	movs	r5, #1
 800090a:	f880 52a8 	strb.w	r5, [r0, #680]	; 0x2a8
 800090e:	6800      	ldr	r0, [r0, #0]
 8000910:	f001 faa9 	bl	8001e66 <USB_EnableGlobalInt>
 8000914:	4629      	mov	r1, r5
 8000916:	4620      	mov	r0, r4
 8000918:	f004 fd9d 	bl	8005456 <HAL_PCDEx_SetConnectionState>
 800091c:	6820      	ldr	r0, [r4, #0]
 800091e:	f001 fd34 	bl	800238a <USB_DevConnect>
 8000922:	2000      	movs	r0, #0
 8000924:	f884 02a8 	strb.w	r0, [r4, #680]	; 0x2a8
 8000928:	bd38      	pop	{r3, r4, r5, pc}
 800092a:	2002      	movs	r0, #2
 800092c:	e7fc      	b.n	8000928 <HAL_PCD_Start+0x2c>

0800092e <HAL_PCD_SetAddress>:
 800092e:	f890 22a8 	ldrb.w	r2, [r0, #680]	; 0x2a8
 8000932:	b510      	push	{r4, lr}
 8000934:	2a01      	cmp	r2, #1
 8000936:	4604      	mov	r4, r0
 8000938:	d00b      	beq.n	8000952 <HAL_PCD_SetAddress+0x24>
 800093a:	2201      	movs	r2, #1
 800093c:	f880 22a8 	strb.w	r2, [r0, #680]	; 0x2a8
 8000940:	f884 1024 	strb.w	r1, [r4, #36]	; 0x24
 8000944:	6800      	ldr	r0, [r0, #0]
 8000946:	f001 fd1a 	bl	800237e <USB_SetDevAddress>
 800094a:	2000      	movs	r0, #0
 800094c:	f884 02a8 	strb.w	r0, [r4, #680]	; 0x2a8
 8000950:	bd10      	pop	{r4, pc}
 8000952:	2002      	movs	r0, #2
 8000954:	e7fc      	b.n	8000950 <HAL_PCD_SetAddress+0x22>
	...

08000958 <HAL_PCD_IRQHandler>:
 8000958:	e92d 4ff0 	stmdb	sp!, {r4, r5, r6, r7, r8, r9, sl, fp, lr}
 800095c:	4604      	mov	r4, r0
 800095e:	b085      	sub	sp, #20
 8000960:	6800      	ldr	r0, [r0, #0]
 8000962:	f001 fd16 	bl	8002392 <USB_ReadInterrupts>
 8000966:	0402      	lsls	r2, r0, #16
 8000968:	d509      	bpl.n	800097e <HAL_PCD_IRQHandler+0x26>
 800096a:	f8df 9828 	ldr.w	r9, [pc, #2088]	; 8001194 <HAL_PCD_IRQHandler+0x83c>
 800096e:	f8df 8828 	ldr.w	r8, [pc, #2088]	; 8001198 <HAL_PCD_IRQHandler+0x840>
 8000972:	6820      	ldr	r0, [r4, #0]
 8000974:	f8b0 3044 	ldrh.w	r3, [r0, #68]	; 0x44
 8000978:	041b      	lsls	r3, r3, #16
 800097a:	f100 80bc 	bmi.w	8000af6 <HAL_PCD_IRQHandler+0x19e>
 800097e:	6820      	ldr	r0, [r4, #0]
 8000980:	f001 fd07 	bl	8002392 <USB_ReadInterrupts>
 8000984:	0543      	lsls	r3, r0, #21
 8000986:	d50f      	bpl.n	80009a8 <HAL_PCD_IRQHandler+0x50>
 8000988:	6822      	ldr	r2, [r4, #0]
 800098a:	4620      	mov	r0, r4
 800098c:	f8b2 3044 	ldrh.w	r3, [r2, #68]	; 0x44
 8000990:	f423 6380 	bic.w	r3, r3, #1024	; 0x400
 8000994:	041b      	lsls	r3, r3, #16
 8000996:	0c1b      	lsrs	r3, r3, #16
 8000998:	f8a2 3044 	strh.w	r3, [r2, #68]	; 0x44
 800099c:	f004 fc65 	bl	800526a <HAL_PCD_ResetCallback>
 80009a0:	2100      	movs	r1, #0
 80009a2:	4620      	mov	r0, r4
 80009a4:	f7ff ffc3 	bl	800092e <HAL_PCD_SetAddress>
 80009a8:	6820      	ldr	r0, [r4, #0]
 80009aa:	f001 fcf2 	bl	8002392 <USB_ReadInterrupts>
 80009ae:	0447      	lsls	r7, r0, #17
 80009b0:	d508      	bpl.n	80009c4 <HAL_PCD_IRQHandler+0x6c>
 80009b2:	6822      	ldr	r2, [r4, #0]
 80009b4:	f8b2 3044 	ldrh.w	r3, [r2, #68]	; 0x44
 80009b8:	f423 4380 	bic.w	r3, r3, #16384	; 0x4000
 80009bc:	041b      	lsls	r3, r3, #16
 80009be:	0c1b      	lsrs	r3, r3, #16
 80009c0:	f8a2 3044 	strh.w	r3, [r2, #68]	; 0x44
 80009c4:	6820      	ldr	r0, [r4, #0]
 80009c6:	f001 fce4 	bl	8002392 <USB_ReadInterrupts>
 80009ca:	0486      	lsls	r6, r0, #18
 80009cc:	d508      	bpl.n	80009e0 <HAL_PCD_IRQHandler+0x88>
 80009ce:	6822      	ldr	r2, [r4, #0]
 80009d0:	f8b2 3044 	ldrh.w	r3, [r2, #68]	; 0x44
 80009d4:	f423 5300 	bic.w	r3, r3, #8192	; 0x2000
 80009d8:	041b      	lsls	r3, r3, #16
 80009da:	0c1b      	lsrs	r3, r3, #16
 80009dc:	f8a2 3044 	strh.w	r3, [r2, #68]	; 0x44
 80009e0:	6820      	ldr	r0, [r4, #0]
 80009e2:	f001 fcd6 	bl	8002392 <USB_ReadInterrupts>
 80009e6:	04c5      	lsls	r5, r0, #19
 80009e8:	d51c      	bpl.n	8000a24 <HAL_PCD_IRQHandler+0xcc>
 80009ea:	6822      	ldr	r2, [r4, #0]
 80009ec:	4620      	mov	r0, r4
 80009ee:	f8b2 3040 	ldrh.w	r3, [r2, #64]	; 0x40
 80009f2:	f023 0304 	bic.w	r3, r3, #4
 80009f6:	041b      	lsls	r3, r3, #16
 80009f8:	0c1b      	lsrs	r3, r3, #16
 80009fa:	f8a2 3040 	strh.w	r3, [r2, #64]	; 0x40
 80009fe:	f8b2 3040 	ldrh.w	r3, [r2, #64]	; 0x40
 8000a02:	f023 0308 	bic.w	r3, r3, #8
 8000a06:	041b      	lsls	r3, r3, #16
 8000a08:	0c1b      	lsrs	r3, r3, #16
 8000a0a:	f8a2 3040 	strh.w	r3, [r2, #64]	; 0x40
 8000a0e:	f004 fc4f 	bl	80052b0 <HAL_PCD_ResumeCallback>
 8000a12:	6822      	ldr	r2, [r4, #0]
 8000a14:	f8b2 3044 	ldrh.w	r3, [r2, #68]	; 0x44
 8000a18:	f423 5380 	bic.w	r3, r3, #4096	; 0x1000
 8000a1c:	041b      	lsls	r3, r3, #16
 8000a1e:	0c1b      	lsrs	r3, r3, #16
 8000a20:	f8a2 3044 	strh.w	r3, [r2, #68]	; 0x44
 8000a24:	6820      	ldr	r0, [r4, #0]
 8000a26:	f001 fcb4 	bl	8002392 <USB_ReadInterrupts>
 8000a2a:	0500      	lsls	r0, r0, #20
 8000a2c:	d541      	bpl.n	8000ab2 <HAL_PCD_IRQHandler+0x15a>
 8000a2e:	2200      	movs	r2, #0
 8000a30:	6823      	ldr	r3, [r4, #0]
 8000a32:	f833 1022 	ldrh.w	r1, [r3, r2, lsl #2]
 8000a36:	f82d 1012 	strh.w	r1, [sp, r2, lsl #1]
 8000a3a:	3201      	adds	r2, #1
 8000a3c:	2a08      	cmp	r2, #8
 8000a3e:	d1f8      	bne.n	8000a32 <HAL_PCD_IRQHandler+0xda>
 8000a40:	f8b3 2040 	ldrh.w	r2, [r3, #64]	; 0x40
 8000a44:	f042 0201 	orr.w	r2, r2, #1
 8000a48:	f8a3 2040 	strh.w	r2, [r3, #64]	; 0x40
 8000a4c:	f8b3 2040 	ldrh.w	r2, [r3, #64]	; 0x40
 8000a50:	f022 0201 	bic.w	r2, r2, #1
 8000a54:	0412      	lsls	r2, r2, #16
 8000a56:	0c12      	lsrs	r2, r2, #16
 8000a58:	f8a3 2040 	strh.w	r2, [r3, #64]	; 0x40
 8000a5c:	f8b3 2044 	ldrh.w	r2, [r3, #68]	; 0x44
 8000a60:	0551      	lsls	r1, r2, #21
 8000a62:	d5fb      	bpl.n	8000a5c <HAL_PCD_IRQHandler+0x104>
 8000a64:	f8b3 2044 	ldrh.w	r2, [r3, #68]	; 0x44
 8000a68:	f422 6280 	bic.w	r2, r2, #1024	; 0x400
 8000a6c:	0412      	lsls	r2, r2, #16
 8000a6e:	0c12      	lsrs	r2, r2, #16
 8000a70:	f8a3 2044 	strh.w	r2, [r3, #68]	; 0x44
 8000a74:	2200      	movs	r2, #0
 8000a76:	f83d 1012 	ldrh.w	r1, [sp, r2, lsl #1]
 8000a7a:	f823 1022 	strh.w	r1, [r3, r2, lsl #2]
 8000a7e:	3201      	adds	r2, #1
 8000a80:	2a08      	cmp	r2, #8
 8000a82:	d1f8      	bne.n	8000a76 <HAL_PCD_IRQHandler+0x11e>
 8000a84:	f8b3 2040 	ldrh.w	r2, [r3, #64]	; 0x40
 8000a88:	4620      	mov	r0, r4
 8000a8a:	f042 0208 	orr.w	r2, r2, #8
 8000a8e:	f8a3 2040 	strh.w	r2, [r3, #64]	; 0x40
 8000a92:	f8b3 2044 	ldrh.w	r2, [r3, #68]	; 0x44
 8000a96:	f422 6200 	bic.w	r2, r2, #2048	; 0x800
 8000a9a:	0412      	lsls	r2, r2, #16
 8000a9c:	0c12      	lsrs	r2, r2, #16
 8000a9e:	f8a3 2044 	strh.w	r2, [r3, #68]	; 0x44
 8000aa2:	f8b3 2040 	ldrh.w	r2, [r3, #64]	; 0x40
 8000aa6:	f042 0204 	orr.w	r2, r2, #4
 8000aaa:	f8a3 2040 	strh.w	r2, [r3, #64]	; 0x40
 8000aae:	f004 fbef 	bl	8005290 <HAL_PCD_SuspendCallback>
 8000ab2:	6820      	ldr	r0, [r4, #0]
 8000ab4:	f001 fc6d 	bl	8002392 <USB_ReadInterrupts>
 8000ab8:	0582      	lsls	r2, r0, #22
 8000aba:	d50b      	bpl.n	8000ad4 <HAL_PCD_IRQHandler+0x17c>
 8000abc:	6822      	ldr	r2, [r4, #0]
 8000abe:	4620      	mov	r0, r4
 8000ac0:	f8b2 3044 	ldrh.w	r3, [r2, #68]	; 0x44
 8000ac4:	f423 7300 	bic.w	r3, r3, #512	; 0x200
 8000ac8:	041b      	lsls	r3, r3, #16
 8000aca:	0c1b      	lsrs	r3, r3, #16
 8000acc:	f8a2 3044 	strh.w	r3, [r2, #68]	; 0x44
 8000ad0:	f004 fbc7 	bl	8005262 <HAL_PCD_SOFCallback>
 8000ad4:	6820      	ldr	r0, [r4, #0]
 8000ad6:	f001 fc5c 	bl	8002392 <USB_ReadInterrupts>
 8000ada:	05c3      	lsls	r3, r0, #23
 8000adc:	d508      	bpl.n	8000af0 <HAL_PCD_IRQHandler+0x198>
 8000ade:	6822      	ldr	r2, [r4, #0]
 8000ae0:	f8b2 3044 	ldrh.w	r3, [r2, #68]	; 0x44
 8000ae4:	f423 7380 	bic.w	r3, r3, #256	; 0x100
 8000ae8:	041b      	lsls	r3, r3, #16
 8000aea:	0c1b      	lsrs	r3, r3, #16
 8000aec:	f8a2 3044 	strh.w	r3, [r2, #68]	; 0x44
 8000af0:	b005      	add	sp, #20
 8000af2:	e8bd 8ff0 	ldmia.w	sp!, {r4, r5, r6, r7, r8, r9, sl, fp, pc}
 8000af6:	f8b0 1044 	ldrh.w	r1, [r0, #68]	; 0x44
 8000afa:	b289      	uxth	r1, r1
 8000afc:	f011 060f 	ands.w	r6, r1, #15
 8000b00:	f040 80b1 	bne.w	8000c66 <HAL_PCD_IRQHandler+0x30e>
 8000b04:	f011 0110 	ands.w	r1, r1, #16
 8000b08:	8803      	ldrh	r3, [r0, #0]
 8000b0a:	d12a      	bne.n	8000b62 <HAL_PCD_IRQHandler+0x20a>
 8000b0c:	ea09 0303 	and.w	r3, r9, r3
 8000b10:	f443 4300 	orr.w	r3, r3, #32768	; 0x8000
 8000b14:	8003      	strh	r3, [r0, #0]
 8000b16:	f8b0 3050 	ldrh.w	r3, [r0, #80]	; 0x50
 8000b1a:	f894 2028 	ldrb.w	r2, [r4, #40]	; 0x28
 8000b1e:	eb03 03c2 	add.w	r3, r3, r2, lsl #3
 8000b22:	eb00 0043 	add.w	r0, r0, r3, lsl #1
 8000b26:	f8b0 3404 	ldrh.w	r3, [r0, #1028]	; 0x404
 8000b2a:	6be2      	ldr	r2, [r4, #60]	; 0x3c
 8000b2c:	f3c3 0309 	ubfx	r3, r3, #0, #10
 8000b30:	6463      	str	r3, [r4, #68]	; 0x44
 8000b32:	4413      	add	r3, r2
 8000b34:	63e3      	str	r3, [r4, #60]	; 0x3c
 8000b36:	4620      	mov	r0, r4
 8000b38:	f004 fb8b 	bl	8005252 <HAL_PCD_DataInStageCallback>
 8000b3c:	f894 3024 	ldrb.w	r3, [r4, #36]	; 0x24
 8000b40:	2b00      	cmp	r3, #0
 8000b42:	f43f af16 	beq.w	8000972 <HAL_PCD_IRQHandler+0x1a>
 8000b46:	6c22      	ldr	r2, [r4, #64]	; 0x40
 8000b48:	2a00      	cmp	r2, #0
 8000b4a:	f47f af12 	bne.w	8000972 <HAL_PCD_IRQHandler+0x1a>
 8000b4e:	f894 3024 	ldrb.w	r3, [r4, #36]	; 0x24
 8000b52:	6821      	ldr	r1, [r4, #0]
 8000b54:	f043 0380 	orr.w	r3, r3, #128	; 0x80
 8000b58:	f8a1 304c 	strh.w	r3, [r1, #76]	; 0x4c
 8000b5c:	f884 2024 	strb.w	r2, [r4, #36]	; 0x24
 8000b60:	e707      	b.n	8000972 <HAL_PCD_IRQHandler+0x1a>
 8000b62:	b29b      	uxth	r3, r3
 8000b64:	f413 6500 	ands.w	r5, r3, #2048	; 0x800
 8000b68:	d020      	beq.n	8000bac <HAL_PCD_IRQHandler+0x254>
 8000b6a:	f8b0 3050 	ldrh.w	r3, [r0, #80]	; 0x50
 8000b6e:	f894 2168 	ldrb.w	r2, [r4, #360]	; 0x168
 8000b72:	f504 712c 	add.w	r1, r4, #688	; 0x2b0
 8000b76:	eb03 03c2 	add.w	r3, r3, r2, lsl #3
 8000b7a:	eb00 0343 	add.w	r3, r0, r3, lsl #1
 8000b7e:	f8b3 340c 	ldrh.w	r3, [r3, #1036]	; 0x40c
 8000b82:	f8b4 216e 	ldrh.w	r2, [r4, #366]	; 0x16e
 8000b86:	f3c3 0309 	ubfx	r3, r3, #0, #10
 8000b8a:	f8c4 3184 	str.w	r3, [r4, #388]	; 0x184
 8000b8e:	f001 fec1 	bl	8002914 <USB_ReadPMA>
 8000b92:	6822      	ldr	r2, [r4, #0]
 8000b94:	4620      	mov	r0, r4
 8000b96:	8813      	ldrh	r3, [r2, #0]
 8000b98:	f023 0370 	bic.w	r3, r3, #112	; 0x70
 8000b9c:	051b      	lsls	r3, r3, #20
 8000b9e:	0d1b      	lsrs	r3, r3, #20
 8000ba0:	f043 0380 	orr.w	r3, r3, #128	; 0x80
 8000ba4:	8013      	strh	r3, [r2, #0]
 8000ba6:	f004 fb45 	bl	8005234 <HAL_PCD_SetupStageCallback>
 8000baa:	e6e2      	b.n	8000972 <HAL_PCD_IRQHandler+0x1a>
 8000bac:	041f      	lsls	r7, r3, #16
 8000bae:	f57f aee0 	bpl.w	8000972 <HAL_PCD_IRQHandler+0x1a>
 8000bb2:	8803      	ldrh	r3, [r0, #0]
 8000bb4:	f023 0370 	bic.w	r3, r3, #112	; 0x70
 8000bb8:	051b      	lsls	r3, r3, #20
 8000bba:	0d1b      	lsrs	r3, r3, #20
 8000bbc:	f043 0380 	orr.w	r3, r3, #128	; 0x80
 8000bc0:	8003      	strh	r3, [r0, #0]
 8000bc2:	f8b0 3050 	ldrh.w	r3, [r0, #80]	; 0x50
 8000bc6:	f894 2168 	ldrb.w	r2, [r4, #360]	; 0x168
 8000bca:	eb03 03c2 	add.w	r3, r3, r2, lsl #3
 8000bce:	eb00 0343 	add.w	r3, r0, r3, lsl #1
 8000bd2:	f8b3 340c 	ldrh.w	r3, [r3, #1036]	; 0x40c
 8000bd6:	f3c3 0309 	ubfx	r3, r3, #0, #10
 8000bda:	f8c4 3184 	str.w	r3, [r4, #388]	; 0x184
 8000bde:	b18b      	cbz	r3, 8000c04 <HAL_PCD_IRQHandler+0x2ac>
 8000be0:	f8d4 117c 	ldr.w	r1, [r4, #380]	; 0x17c
 8000be4:	b171      	cbz	r1, 8000c04 <HAL_PCD_IRQHandler+0x2ac>
 8000be6:	f8b4 216e 	ldrh.w	r2, [r4, #366]	; 0x16e
 8000bea:	f001 fe93 	bl	8002914 <USB_ReadPMA>
 8000bee:	f8d4 317c 	ldr.w	r3, [r4, #380]	; 0x17c
 8000bf2:	f8d4 2184 	ldr.w	r2, [r4, #388]	; 0x184
 8000bf6:	4629      	mov	r1, r5
 8000bf8:	4413      	add	r3, r2
 8000bfa:	f8c4 317c 	str.w	r3, [r4, #380]	; 0x17c
 8000bfe:	4620      	mov	r0, r4
 8000c00:	f004 fb1e 	bl	8005240 <HAL_PCD_DataOutStageCallback>
 8000c04:	6821      	ldr	r1, [r4, #0]
 8000c06:	f8d4 5178 	ldr.w	r5, [r4, #376]	; 0x178
 8000c0a:	f8b1 3050 	ldrh.w	r3, [r1, #80]	; 0x50
 8000c0e:	f201 400c 	addw	r0, r1, #1036	; 0x40c
 8000c12:	b29b      	uxth	r3, r3
 8000c14:	b9bd      	cbnz	r5, 8000c46 <HAL_PCD_IRQHandler+0x2ee>
 8000c16:	5ac2      	ldrh	r2, [r0, r3]
 8000c18:	f422 42f8 	bic.w	r2, r2, #31744	; 0x7c00
 8000c1c:	0412      	lsls	r2, r2, #16
 8000c1e:	0c12      	lsrs	r2, r2, #16
 8000c20:	52c2      	strh	r2, [r0, r3]
 8000c22:	5ac2      	ldrh	r2, [r0, r3]
 8000c24:	ea48 0202 	orr.w	r2, r8, r2
 8000c28:	b292      	uxth	r2, r2
 8000c2a:	52c2      	strh	r2, [r0, r3]
 8000c2c:	880b      	ldrh	r3, [r1, #0]
 8000c2e:	f423 4380 	bic.w	r3, r3, #16384	; 0x4000
 8000c32:	f023 0370 	bic.w	r3, r3, #112	; 0x70
 8000c36:	f483 5340 	eor.w	r3, r3, #12288	; 0x3000
 8000c3a:	f443 4300 	orr.w	r3, r3, #32768	; 0x8000
 8000c3e:	f043 0380 	orr.w	r3, r3, #128	; 0x80
 8000c42:	800b      	strh	r3, [r1, #0]
 8000c44:	e695      	b.n	8000972 <HAL_PCD_IRQHandler+0x1a>
 8000c46:	2d3e      	cmp	r5, #62	; 0x3e
 8000c48:	d805      	bhi.n	8000c56 <HAL_PCD_IRQHandler+0x2fe>
 8000c4a:	086a      	lsrs	r2, r5, #1
 8000c4c:	07ee      	lsls	r6, r5, #31
 8000c4e:	bf48      	it	mi
 8000c50:	3201      	addmi	r2, #1
 8000c52:	0292      	lsls	r2, r2, #10
 8000c54:	e7e8      	b.n	8000c28 <HAL_PCD_IRQHandler+0x2d0>
 8000c56:	096a      	lsrs	r2, r5, #5
 8000c58:	06ed      	lsls	r5, r5, #27
 8000c5a:	bf08      	it	eq
 8000c5c:	f102 32ff 	addeq.w	r2, r2, #4294967295
 8000c60:	ea48 2282 	orr.w	r2, r8, r2, lsl #10
 8000c64:	e7e0      	b.n	8000c28 <HAL_PCD_IRQHandler+0x2d0>
 8000c66:	f830 7026 	ldrh.w	r7, [r0, r6, lsl #2]
 8000c6a:	b2bf      	uxth	r7, r7
 8000c6c:	0439      	lsls	r1, r7, #16
 8000c6e:	f140 80f2 	bpl.w	8000e56 <HAL_PCD_IRQHandler+0x4fe>
 8000c72:	2128      	movs	r1, #40	; 0x28
 8000c74:	f830 3026 	ldrh.w	r3, [r0, r6, lsl #2]
 8000c78:	fb01 4106 	mla	r1, r1, r6, r4
 8000c7c:	f023 0370 	bic.w	r3, r3, #112	; 0x70
 8000c80:	051b      	lsls	r3, r3, #20
 8000c82:	0d1b      	lsrs	r3, r3, #20
 8000c84:	f043 0380 	orr.w	r3, r3, #128	; 0x80
 8000c88:	f820 3026 	strh.w	r3, [r0, r6, lsl #2]
 8000c8c:	f891 3174 	ldrb.w	r3, [r1, #372]	; 0x174
 8000c90:	f500 6c80 	add.w	ip, r0, #1024	; 0x400
 8000c94:	b9ab      	cbnz	r3, 8000cc2 <HAL_PCD_IRQHandler+0x36a>
 8000c96:	f8b0 3050 	ldrh.w	r3, [r0, #80]	; 0x50
 8000c9a:	f891 2168 	ldrb.w	r2, [r1, #360]	; 0x168
 8000c9e:	3306      	adds	r3, #6
 8000ca0:	eb03 03c2 	add.w	r3, r3, r2, lsl #3
 8000ca4:	f83c 5013 	ldrh.w	r5, [ip, r3, lsl #1]
 8000ca8:	f3c5 0509 	ubfx	r5, r5, #0, #10
 8000cac:	2d00      	cmp	r5, #0
 8000cae:	f000 80b6 	beq.w	8000e1e <HAL_PCD_IRQHandler+0x4c6>
 8000cb2:	462b      	mov	r3, r5
 8000cb4:	f8b1 216e 	ldrh.w	r2, [r1, #366]	; 0x16e
 8000cb8:	f8d1 117c 	ldr.w	r1, [r1, #380]	; 0x17c
 8000cbc:	f001 fe2a 	bl	8002914 <USB_ReadPMA>
 8000cc0:	e0ad      	b.n	8000e1e <HAL_PCD_IRQHandler+0x4c6>
 8000cc2:	f891 316b 	ldrb.w	r3, [r1, #363]	; 0x16b
 8000cc6:	f891 2168 	ldrb.w	r2, [r1, #360]	; 0x168
 8000cca:	2b02      	cmp	r3, #2
 8000ccc:	f040 8089 	bne.w	8000de2 <HAL_PCD_IRQHandler+0x48a>
 8000cd0:	f417 4a80 	ands.w	sl, r7, #16384	; 0x4000
 8000cd4:	ea4f 05c2 	mov.w	r5, r2, lsl #3
 8000cd8:	f8d1 3180 	ldr.w	r3, [r1, #384]	; 0x180
 8000cdc:	f007 0e40 	and.w	lr, r7, #64	; 0x40
 8000ce0:	d03e      	beq.n	8000d60 <HAL_PCD_IRQHandler+0x408>
 8000ce2:	f8b0 a050 	ldrh.w	sl, [r0, #80]	; 0x50
 8000ce6:	4455      	add	r5, sl
 8000ce8:	3502      	adds	r5, #2
 8000cea:	f83c 5015 	ldrh.w	r5, [ip, r5, lsl #1]
 8000cee:	f3c5 0509 	ubfx	r5, r5, #0, #10
 8000cf2:	429d      	cmp	r5, r3
 8000cf4:	bf8c      	ite	hi
 8000cf6:	2300      	movhi	r3, #0
 8000cf8:	1b5b      	subls	r3, r3, r5
 8000cfa:	f8c1 3180 	str.w	r3, [r1, #384]	; 0x180
 8000cfe:	2328      	movs	r3, #40	; 0x28
 8000d00:	fb03 4306 	mla	r3, r3, r6, r4
 8000d04:	f8d3 3180 	ldr.w	r3, [r3, #384]	; 0x180
 8000d08:	b96b      	cbnz	r3, 8000d26 <HAL_PCD_IRQHandler+0x3ce>
 8000d0a:	f830 3022 	ldrh.w	r3, [r0, r2, lsl #2]
 8000d0e:	f423 4380 	bic.w	r3, r3, #16384	; 0x4000
 8000d12:	f023 0370 	bic.w	r3, r3, #112	; 0x70
 8000d16:	f483 5300 	eor.w	r3, r3, #8192	; 0x2000
 8000d1a:	f443 4300 	orr.w	r3, r3, #32768	; 0x8000
 8000d1e:	f043 0380 	orr.w	r3, r3, #128	; 0x80
 8000d22:	f820 3022 	strh.w	r3, [r0, r2, lsl #2]
 8000d26:	f1be 0f00 	cmp.w	lr, #0
 8000d2a:	d010      	beq.n	8000d4e <HAL_PCD_IRQHandler+0x3f6>
 8000d2c:	2328      	movs	r3, #40	; 0x28
 8000d2e:	fb03 4306 	mla	r3, r3, r6, r4
 8000d32:	f893 2168 	ldrb.w	r2, [r3, #360]	; 0x168
 8000d36:	f830 3022 	ldrh.w	r3, [r0, r2, lsl #2]
 8000d3a:	f023 03f0 	bic.w	r3, r3, #240	; 0xf0
 8000d3e:	051b      	lsls	r3, r3, #20
 8000d40:	0d1b      	lsrs	r3, r3, #20
 8000d42:	f443 4300 	orr.w	r3, r3, #32768	; 0x8000
 8000d46:	f043 03c0 	orr.w	r3, r3, #192	; 0xc0
 8000d4a:	f820 3022 	strh.w	r3, [r0, r2, lsl #2]
 8000d4e:	2d00      	cmp	r5, #0
 8000d50:	d065      	beq.n	8000e1e <HAL_PCD_IRQHandler+0x4c6>
 8000d52:	2128      	movs	r1, #40	; 0x28
 8000d54:	fb01 4106 	mla	r1, r1, r6, r4
 8000d58:	462b      	mov	r3, r5
 8000d5a:	f8b1 2170 	ldrh.w	r2, [r1, #368]	; 0x170
 8000d5e:	e7ab      	b.n	8000cb8 <HAL_PCD_IRQHandler+0x360>
 8000d60:	f8b0 b050 	ldrh.w	fp, [r0, #80]	; 0x50
 8000d64:	445d      	add	r5, fp
 8000d66:	3506      	adds	r5, #6
 8000d68:	f83c 5015 	ldrh.w	r5, [ip, r5, lsl #1]
 8000d6c:	f3c5 0509 	ubfx	r5, r5, #0, #10
 8000d70:	429d      	cmp	r5, r3
 8000d72:	bf9c      	itt	ls
 8000d74:	1b5b      	subls	r3, r3, r5
 8000d76:	f8c1 3180 	strls.w	r3, [r1, #384]	; 0x180
 8000d7a:	f04f 0328 	mov.w	r3, #40	; 0x28
 8000d7e:	fb03 4306 	mla	r3, r3, r6, r4
 8000d82:	bf88      	it	hi
 8000d84:	f8c1 a180 	strhi.w	sl, [r1, #384]	; 0x180
 8000d88:	f8d3 3180 	ldr.w	r3, [r3, #384]	; 0x180
 8000d8c:	b96b      	cbnz	r3, 8000daa <HAL_PCD_IRQHandler+0x452>
 8000d8e:	f830 3022 	ldrh.w	r3, [r0, r2, lsl #2]
 8000d92:	f423 4380 	bic.w	r3, r3, #16384	; 0x4000
 8000d96:	f023 0370 	bic.w	r3, r3, #112	; 0x70
 8000d9a:	f483 5300 	eor.w	r3, r3, #8192	; 0x2000
 8000d9e:	f443 4300 	orr.w	r3, r3, #32768	; 0x8000
 8000da2:	f043 0380 	orr.w	r3, r3, #128	; 0x80
 8000da6:	f820 3022 	strh.w	r3, [r0, r2, lsl #2]
 8000daa:	f1be 0f00 	cmp.w	lr, #0
 8000dae:	d110      	bne.n	8000dd2 <HAL_PCD_IRQHandler+0x47a>
 8000db0:	2328      	movs	r3, #40	; 0x28
 8000db2:	fb03 4306 	mla	r3, r3, r6, r4
 8000db6:	f893 2168 	ldrb.w	r2, [r3, #360]	; 0x168
 8000dba:	f830 3022 	ldrh.w	r3, [r0, r2, lsl #2]
 8000dbe:	f023 03f0 	bic.w	r3, r3, #240	; 0xf0
 8000dc2:	051b      	lsls	r3, r3, #20
 8000dc4:	0d1b      	lsrs	r3, r3, #20
 8000dc6:	f443 4300 	orr.w	r3, r3, #32768	; 0x8000
 8000dca:	f043 03c0 	orr.w	r3, r3, #192	; 0xc0
 8000dce:	f820 3022 	strh.w	r3, [r0, r2, lsl #2]
 8000dd2:	b325      	cbz	r5, 8000e1e <HAL_PCD_IRQHandler+0x4c6>
 8000dd4:	2128      	movs	r1, #40	; 0x28
 8000dd6:	fb01 4106 	mla	r1, r1, r6, r4
 8000dda:	462b      	mov	r3, r5
 8000ddc:	f8b1 2172 	ldrh.w	r2, [r1, #370]	; 0x172
 8000de0:	e76a      	b.n	8000cb8 <HAL_PCD_IRQHandler+0x360>
 8000de2:	f830 3022 	ldrh.w	r3, [r0, r2, lsl #2]
 8000de6:	f023 03f0 	bic.w	r3, r3, #240	; 0xf0
 8000dea:	051b      	lsls	r3, r3, #20
 8000dec:	0d1b      	lsrs	r3, r3, #20
 8000dee:	f443 4300 	orr.w	r3, r3, #32768	; 0x8000
 8000df2:	f043 03c0 	orr.w	r3, r3, #192	; 0xc0
 8000df6:	f820 3022 	strh.w	r3, [r0, r2, lsl #2]
 8000dfa:	f891 3168 	ldrb.w	r3, [r1, #360]	; 0x168
 8000dfe:	f830 2023 	ldrh.w	r2, [r0, r3, lsl #2]
 8000e02:	00db      	lsls	r3, r3, #3
 8000e04:	f412 4f80 	tst.w	r2, #16384	; 0x4000
 8000e08:	f8b0 2050 	ldrh.w	r2, [r0, #80]	; 0x50
 8000e0c:	d05e      	beq.n	8000ecc <HAL_PCD_IRQHandler+0x574>
 8000e0e:	3202      	adds	r2, #2
 8000e10:	4413      	add	r3, r2
 8000e12:	f83c 5013 	ldrh.w	r5, [ip, r3, lsl #1]
 8000e16:	f3c5 0509 	ubfx	r5, r5, #0, #10
 8000e1a:	2d00      	cmp	r5, #0
 8000e1c:	d19c      	bne.n	8000d58 <HAL_PCD_IRQHandler+0x400>
 8000e1e:	2128      	movs	r1, #40	; 0x28
 8000e20:	4371      	muls	r1, r6
 8000e22:	1863      	adds	r3, r4, r1
 8000e24:	f8d3 2184 	ldr.w	r2, [r3, #388]	; 0x184
 8000e28:	442a      	add	r2, r5
 8000e2a:	f8c3 2184 	str.w	r2, [r3, #388]	; 0x184
 8000e2e:	f8d3 217c 	ldr.w	r2, [r3, #380]	; 0x17c
 8000e32:	442a      	add	r2, r5
 8000e34:	f8c3 217c 	str.w	r2, [r3, #380]	; 0x17c
 8000e38:	f8d3 2180 	ldr.w	r2, [r3, #384]	; 0x180
 8000e3c:	b11a      	cbz	r2, 8000e46 <HAL_PCD_IRQHandler+0x4ee>
 8000e3e:	f8d3 3178 	ldr.w	r3, [r3, #376]	; 0x178
 8000e42:	429d      	cmp	r5, r3
 8000e44:	d24b      	bcs.n	8000ede <HAL_PCD_IRQHandler+0x586>
 8000e46:	2328      	movs	r3, #40	; 0x28
 8000e48:	fb03 4306 	mla	r3, r3, r6, r4
 8000e4c:	4620      	mov	r0, r4
 8000e4e:	f893 1168 	ldrb.w	r1, [r3, #360]	; 0x168
 8000e52:	f004 f9f5 	bl	8005240 <HAL_PCD_DataOutStageCallback>
 8000e56:	063a      	lsls	r2, r7, #24
 8000e58:	f57f ad8b 	bpl.w	8000972 <HAL_PCD_IRQHandler+0x1a>
 8000e5c:	2528      	movs	r5, #40	; 0x28
 8000e5e:	6820      	ldr	r0, [r4, #0]
 8000e60:	fb05 4506 	mla	r5, r5, r6, r4
 8000e64:	f830 3026 	ldrh.w	r3, [r0, r6, lsl #2]
 8000e68:	f500 6280 	add.w	r2, r0, #1024	; 0x400
 8000e6c:	ea09 0303 	and.w	r3, r9, r3
 8000e70:	f443 4300 	orr.w	r3, r3, #32768	; 0x8000
 8000e74:	f820 3026 	strh.w	r3, [r0, r6, lsl #2]
 8000e78:	f895 302b 	ldrb.w	r3, [r5, #43]	; 0x2b
 8000e7c:	f895 1028 	ldrb.w	r1, [r5, #40]	; 0x28
 8000e80:	2b02      	cmp	r3, #2
 8000e82:	d101      	bne.n	8000e88 <HAL_PCD_IRQHandler+0x530>
 8000e84:	05fb      	lsls	r3, r7, #23
 8000e86:	d43d      	bmi.n	8000f04 <HAL_PCD_IRQHandler+0x5ac>
 8000e88:	2328      	movs	r3, #40	; 0x28
 8000e8a:	f8b0 e050 	ldrh.w	lr, [r0, #80]	; 0x50
 8000e8e:	fb03 4c06 	mla	ip, r3, r6, r4
 8000e92:	f10e 0e02 	add.w	lr, lr, #2
 8000e96:	eb0e 01c1 	add.w	r1, lr, r1, lsl #3
 8000e9a:	f832 2011 	ldrh.w	r2, [r2, r1, lsl #1]
 8000e9e:	f8dc 7040 	ldr.w	r7, [ip, #64]	; 0x40
 8000ea2:	f3c2 0209 	ubfx	r2, r2, #0, #10
 8000ea6:	4297      	cmp	r7, r2
 8000ea8:	bf92      	itee	ls
 8000eaa:	2100      	movls	r1, #0
 8000eac:	1abf      	subhi	r7, r7, r2
 8000eae:	f8cc 7040 	strhi.w	r7, [ip, #64]	; 0x40
 8000eb2:	fb03 4706 	mla	r7, r3, r6, r4
 8000eb6:	bf98      	it	ls
 8000eb8:	f8cc 1040 	strls.w	r1, [ip, #64]	; 0x40
 8000ebc:	6c39      	ldr	r1, [r7, #64]	; 0x40
 8000ebe:	b9a9      	cbnz	r1, 8000eec <HAL_PCD_IRQHandler+0x594>
 8000ec0:	f895 1028 	ldrb.w	r1, [r5, #40]	; 0x28
 8000ec4:	4620      	mov	r0, r4
 8000ec6:	f004 f9c4 	bl	8005252 <HAL_PCD_DataInStageCallback>
 8000eca:	e552      	b.n	8000972 <HAL_PCD_IRQHandler+0x1a>
 8000ecc:	3206      	adds	r2, #6
 8000ece:	4413      	add	r3, r2
 8000ed0:	f83c 5013 	ldrh.w	r5, [ip, r3, lsl #1]
 8000ed4:	f3c5 0509 	ubfx	r5, r5, #0, #10
 8000ed8:	2d00      	cmp	r5, #0
 8000eda:	d0a0      	beq.n	8000e1e <HAL_PCD_IRQHandler+0x4c6>
 8000edc:	e77d      	b.n	8000dda <HAL_PCD_IRQHandler+0x482>
 8000ede:	f501 71b4 	add.w	r1, r1, #360	; 0x168
 8000ee2:	4421      	add	r1, r4
 8000ee4:	6820      	ldr	r0, [r4, #0]
 8000ee6:	f001 fa69 	bl	80023bc <USB_EPStartXfer>
 8000eea:	e7b4      	b.n	8000e56 <HAL_PCD_IRQHandler+0x4fe>
 8000eec:	6bf9      	ldr	r1, [r7, #60]	; 0x3c
 8000eee:	fb06 3303 	mla	r3, r6, r3, r3
 8000ef2:	4411      	add	r1, r2
 8000ef4:	63f9      	str	r1, [r7, #60]	; 0x3c
 8000ef6:	6c79      	ldr	r1, [r7, #68]	; 0x44
 8000ef8:	440a      	add	r2, r1
 8000efa:	647a      	str	r2, [r7, #68]	; 0x44
 8000efc:	18e1      	adds	r1, r4, r3
 8000efe:	f001 fa5d 	bl	80023bc <USB_EPStartXfer>
 8000f02:	e536      	b.n	8000972 <HAL_PCD_IRQHandler+0x1a>
 8000f04:	f017 0e40 	ands.w	lr, r7, #64	; 0x40
 8000f08:	ea4f 0cc1 	mov.w	ip, r1, lsl #3
 8000f0c:	6c2b      	ldr	r3, [r5, #64]	; 0x40
 8000f0e:	f407 4780 	and.w	r7, r7, #16384	; 0x4000
 8000f12:	f000 809e 	beq.w	8001052 <HAL_PCD_IRQHandler+0x6fa>
 8000f16:	f8b0 e050 	ldrh.w	lr, [r0, #80]	; 0x50
 8000f1a:	b2bf      	uxth	r7, r7
 8000f1c:	44f4      	add	ip, lr
 8000f1e:	f10c 0c02 	add.w	ip, ip, #2
 8000f22:	f832 c01c 	ldrh.w	ip, [r2, ip, lsl #1]
 8000f26:	f3cc 0c09 	ubfx	ip, ip, #0, #10
 8000f2a:	459c      	cmp	ip, r3
 8000f2c:	bf2c      	ite	cs
 8000f2e:	2300      	movcs	r3, #0
 8000f30:	eba3 030c 	subcc.w	r3, r3, ip
 8000f34:	642b      	str	r3, [r5, #64]	; 0x40
 8000f36:	2328      	movs	r3, #40	; 0x28
 8000f38:	fb03 4306 	mla	r3, r3, r6, r4
 8000f3c:	6c1b      	ldr	r3, [r3, #64]	; 0x40
 8000f3e:	b9ab      	cbnz	r3, 8000f6c <HAL_PCD_IRQHandler+0x614>
 8000f40:	4620      	mov	r0, r4
 8000f42:	f004 f986 	bl	8005252 <HAL_PCD_DataInStageCallback>
 8000f46:	2f00      	cmp	r7, #0
 8000f48:	f000 80a1 	beq.w	800108e <HAL_PCD_IRQHandler+0x736>
 8000f4c:	f895 1028 	ldrb.w	r1, [r5, #40]	; 0x28
 8000f50:	6822      	ldr	r2, [r4, #0]
 8000f52:	f832 3021 	ldrh.w	r3, [r2, r1, lsl #2]
 8000f56:	f023 03f0 	bic.w	r3, r3, #240	; 0xf0
 8000f5a:	051b      	lsls	r3, r3, #20
 8000f5c:	0d1b      	lsrs	r3, r3, #20
 8000f5e:	f443 4340 	orr.w	r3, r3, #49152	; 0xc000
 8000f62:	f043 0380 	orr.w	r3, r3, #128	; 0x80
 8000f66:	f822 3021 	strh.w	r3, [r2, r1, lsl #2]
 8000f6a:	e090      	b.n	800108e <HAL_PCD_IRQHandler+0x736>
 8000f6c:	b15f      	cbz	r7, 8000f86 <HAL_PCD_IRQHandler+0x62e>
 8000f6e:	f830 3021 	ldrh.w	r3, [r0, r1, lsl #2]
 8000f72:	f023 03f0 	bic.w	r3, r3, #240	; 0xf0
 8000f76:	051b      	lsls	r3, r3, #20
 8000f78:	0d1b      	lsrs	r3, r3, #20
 8000f7a:	f443 4340 	orr.w	r3, r3, #49152	; 0xc000
 8000f7e:	f043 0380 	orr.w	r3, r3, #128	; 0x80
 8000f82:	f820 3021 	strh.w	r3, [r0, r1, lsl #2]
 8000f86:	2328      	movs	r3, #40	; 0x28
 8000f88:	fb03 4306 	mla	r3, r3, r6, r4
 8000f8c:	f893 204c 	ldrb.w	r2, [r3, #76]	; 0x4c
 8000f90:	2a01      	cmp	r2, #1
 8000f92:	d17c      	bne.n	800108e <HAL_PCD_IRQHandler+0x736>
 8000f94:	6c5a      	ldr	r2, [r3, #68]	; 0x44
 8000f96:	6bd9      	ldr	r1, [r3, #60]	; 0x3c
 8000f98:	4462      	add	r2, ip
 8000f9a:	645a      	str	r2, [r3, #68]	; 0x44
 8000f9c:	6c9f      	ldr	r7, [r3, #72]	; 0x48
 8000f9e:	6b9a      	ldr	r2, [r3, #56]	; 0x38
 8000fa0:	4461      	add	r1, ip
 8000fa2:	4297      	cmp	r7, r2
 8000fa4:	63d9      	str	r1, [r3, #60]	; 0x3c
 8000fa6:	d325      	bcc.n	8000ff4 <HAL_PCD_IRQHandler+0x69c>
 8000fa8:	1abf      	subs	r7, r7, r2
 8000faa:	649f      	str	r7, [r3, #72]	; 0x48
 8000fac:	f895 7029 	ldrb.w	r7, [r5, #41]	; 0x29
 8000fb0:	b293      	uxth	r3, r2
 8000fb2:	2f00      	cmp	r7, #0
 8000fb4:	d141      	bne.n	800103a <HAL_PCD_IRQHandler+0x6e2>
 8000fb6:	f8b0 7050 	ldrh.w	r7, [r0, #80]	; 0x50
 8000fba:	f200 4c04 	addw	ip, r0, #1028	; 0x404
 8000fbe:	44bc      	add	ip, r7
 8000fc0:	f895 7028 	ldrb.w	r7, [r5, #40]	; 0x28
 8000fc4:	013f      	lsls	r7, r7, #4
 8000fc6:	bb02      	cbnz	r2, 800100a <HAL_PCD_IRQHandler+0x6b2>
 8000fc8:	f83c 2007 	ldrh.w	r2, [ip, r7]
 8000fcc:	f422 42f8 	bic.w	r2, r2, #31744	; 0x7c00
 8000fd0:	0412      	lsls	r2, r2, #16
 8000fd2:	0c12      	lsrs	r2, r2, #16
 8000fd4:	f82c 2007 	strh.w	r2, [ip, r7]
 8000fd8:	f83c 2007 	ldrh.w	r2, [ip, r7]
 8000fdc:	ea48 0202 	orr.w	r2, r8, r2
 8000fe0:	b292      	uxth	r2, r2
 8000fe2:	f82c 2007 	strh.w	r2, [ip, r7]
 8000fe6:	2228      	movs	r2, #40	; 0x28
 8000fe8:	fb02 4606 	mla	r6, r2, r6, r4
 8000fec:	8e32      	ldrh	r2, [r6, #48]	; 0x30
 8000fee:	f001 f9d5 	bl	800239c <USB_WritePMA>
 8000ff2:	e04c      	b.n	800108e <HAL_PCD_IRQHandler+0x736>
 8000ff4:	b91f      	cbnz	r7, 8000ffe <HAL_PCD_IRQHandler+0x6a6>
 8000ff6:	f883 704c 	strb.w	r7, [r3, #76]	; 0x4c
 8000ffa:	4662      	mov	r2, ip
 8000ffc:	e7d6      	b.n	8000fac <HAL_PCD_IRQHandler+0x654>
 8000ffe:	2200      	movs	r2, #0
 8001000:	f883 204c 	strb.w	r2, [r3, #76]	; 0x4c
 8001004:	649a      	str	r2, [r3, #72]	; 0x48
 8001006:	463a      	mov	r2, r7
 8001008:	e7d0      	b.n	8000fac <HAL_PCD_IRQHandler+0x654>
 800100a:	2a3e      	cmp	r2, #62	; 0x3e
 800100c:	d80c      	bhi.n	8001028 <HAL_PCD_IRQHandler+0x6d0>
 800100e:	ea4f 0e52 	mov.w	lr, r2, lsr #1
 8001012:	07d2      	lsls	r2, r2, #31
 8001014:	bf48      	it	mi
 8001016:	f10e 0e01 	addmi.w	lr, lr, #1
 800101a:	ea4f 2e8e 	mov.w	lr, lr, lsl #10
 800101e:	fa1f fe8e 	uxth.w	lr, lr
 8001022:	f82c e007 	strh.w	lr, [ip, r7]
 8001026:	e7de      	b.n	8000fe6 <HAL_PCD_IRQHandler+0x68e>
 8001028:	ea4f 1e52 	mov.w	lr, r2, lsr #5
 800102c:	06d2      	lsls	r2, r2, #27
 800102e:	bf08      	it	eq
 8001030:	f10e 3eff 	addeq.w	lr, lr, #4294967295
 8001034:	ea48 2e8e 	orr.w	lr, r8, lr, lsl #10
 8001038:	e7f1      	b.n	800101e <HAL_PCD_IRQHandler+0x6c6>
 800103a:	2f01      	cmp	r7, #1
 800103c:	d1d3      	bne.n	8000fe6 <HAL_PCD_IRQHandler+0x68e>
 800103e:	f8b0 2050 	ldrh.w	r2, [r0, #80]	; 0x50
 8001042:	f200 4704 	addw	r7, r0, #1028	; 0x404
 8001046:	4417      	add	r7, r2
 8001048:	f895 2028 	ldrb.w	r2, [r5, #40]	; 0x28
 800104c:	0112      	lsls	r2, r2, #4
 800104e:	52bb      	strh	r3, [r7, r2]
 8001050:	e7c9      	b.n	8000fe6 <HAL_PCD_IRQHandler+0x68e>
 8001052:	f8b0 a050 	ldrh.w	sl, [r0, #80]	; 0x50
 8001056:	b2bf      	uxth	r7, r7
 8001058:	44d4      	add	ip, sl
 800105a:	f10c 0c06 	add.w	ip, ip, #6
 800105e:	f832 c01c 	ldrh.w	ip, [r2, ip, lsl #1]
 8001062:	f3cc 0c09 	ubfx	ip, ip, #0, #10
 8001066:	459c      	cmp	ip, r3
 8001068:	bf9c      	itt	ls
 800106a:	eba3 030c 	subls.w	r3, r3, ip
 800106e:	642b      	strls	r3, [r5, #64]	; 0x40
 8001070:	f04f 0328 	mov.w	r3, #40	; 0x28
 8001074:	fb03 4306 	mla	r3, r3, r6, r4
 8001078:	bf88      	it	hi
 800107a:	f8c5 e040 	strhi.w	lr, [r5, #64]	; 0x40
 800107e:	6c1b      	ldr	r3, [r3, #64]	; 0x40
 8001080:	b9bb      	cbnz	r3, 80010b2 <HAL_PCD_IRQHandler+0x75a>
 8001082:	4620      	mov	r0, r4
 8001084:	f004 f8e5 	bl	8005252 <HAL_PCD_DataInStageCallback>
 8001088:	2f00      	cmp	r7, #0
 800108a:	f43f af5f 	beq.w	8000f4c <HAL_PCD_IRQHandler+0x5f4>
 800108e:	f895 1028 	ldrb.w	r1, [r5, #40]	; 0x28
 8001092:	6822      	ldr	r2, [r4, #0]
 8001094:	f832 3021 	ldrh.w	r3, [r2, r1, lsl #2]
 8001098:	f423 43e0 	bic.w	r3, r3, #28672	; 0x7000
 800109c:	f023 0340 	bic.w	r3, r3, #64	; 0x40
 80010a0:	f083 0330 	eor.w	r3, r3, #48	; 0x30
 80010a4:	f443 4300 	orr.w	r3, r3, #32768	; 0x8000
 80010a8:	f043 0380 	orr.w	r3, r3, #128	; 0x80
 80010ac:	f822 3021 	strh.w	r3, [r2, r1, lsl #2]
 80010b0:	e45f      	b.n	8000972 <HAL_PCD_IRQHandler+0x1a>
 80010b2:	b95f      	cbnz	r7, 80010cc <HAL_PCD_IRQHandler+0x774>
 80010b4:	f830 3021 	ldrh.w	r3, [r0, r1, lsl #2]
 80010b8:	f023 03f0 	bic.w	r3, r3, #240	; 0xf0
 80010bc:	051b      	lsls	r3, r3, #20
 80010be:	0d1b      	lsrs	r3, r3, #20
 80010c0:	f443 4340 	orr.w	r3, r3, #49152	; 0xc000
 80010c4:	f043 0380 	orr.w	r3, r3, #128	; 0x80
 80010c8:	f820 3021 	strh.w	r3, [r0, r1, lsl #2]
 80010cc:	2328      	movs	r3, #40	; 0x28
 80010ce:	fb03 4306 	mla	r3, r3, r6, r4
 80010d2:	f893 204c 	ldrb.w	r2, [r3, #76]	; 0x4c
 80010d6:	2a01      	cmp	r2, #1
 80010d8:	d1d9      	bne.n	800108e <HAL_PCD_IRQHandler+0x736>
 80010da:	6c5a      	ldr	r2, [r3, #68]	; 0x44
 80010dc:	6bd9      	ldr	r1, [r3, #60]	; 0x3c
 80010de:	4462      	add	r2, ip
 80010e0:	645a      	str	r2, [r3, #68]	; 0x44
 80010e2:	6c9f      	ldr	r7, [r3, #72]	; 0x48
 80010e4:	6b9a      	ldr	r2, [r3, #56]	; 0x38
 80010e6:	4461      	add	r1, ip
 80010e8:	4297      	cmp	r7, r2
 80010ea:	63d9      	str	r1, [r3, #60]	; 0x3c
 80010ec:	d323      	bcc.n	8001136 <HAL_PCD_IRQHandler+0x7de>
 80010ee:	1abf      	subs	r7, r7, r2
 80010f0:	649f      	str	r7, [r3, #72]	; 0x48
 80010f2:	f895 7029 	ldrb.w	r7, [r5, #41]	; 0x29
 80010f6:	b293      	uxth	r3, r2
 80010f8:	2f00      	cmp	r7, #0
 80010fa:	d13f      	bne.n	800117c <HAL_PCD_IRQHandler+0x824>
 80010fc:	f8b0 7050 	ldrh.w	r7, [r0, #80]	; 0x50
 8001100:	f200 4c0c 	addw	ip, r0, #1036	; 0x40c
 8001104:	44bc      	add	ip, r7
 8001106:	f895 7028 	ldrb.w	r7, [r5, #40]	; 0x28
 800110a:	013f      	lsls	r7, r7, #4
 800110c:	b9f2      	cbnz	r2, 800114c <HAL_PCD_IRQHandler+0x7f4>
 800110e:	f83c 2007 	ldrh.w	r2, [ip, r7]
 8001112:	f422 42f8 	bic.w	r2, r2, #31744	; 0x7c00
 8001116:	0412      	lsls	r2, r2, #16
 8001118:	0c12      	lsrs	r2, r2, #16
 800111a:	f82c 2007 	strh.w	r2, [ip, r7]
 800111e:	f83c 2007 	ldrh.w	r2, [ip, r7]
 8001122:	ea48 0202 	orr.w	r2, r8, r2
 8001126:	b292      	uxth	r2, r2
 8001128:	f82c 2007 	strh.w	r2, [ip, r7]
 800112c:	2228      	movs	r2, #40	; 0x28
 800112e:	fb02 4606 	mla	r6, r2, r6, r4
 8001132:	8e72      	ldrh	r2, [r6, #50]	; 0x32
 8001134:	e75b      	b.n	8000fee <HAL_PCD_IRQHandler+0x696>
 8001136:	b91f      	cbnz	r7, 8001140 <HAL_PCD_IRQHandler+0x7e8>
 8001138:	f883 704c 	strb.w	r7, [r3, #76]	; 0x4c
 800113c:	4662      	mov	r2, ip
 800113e:	e7d8      	b.n	80010f2 <HAL_PCD_IRQHandler+0x79a>
 8001140:	2200      	movs	r2, #0
 8001142:	649a      	str	r2, [r3, #72]	; 0x48
 8001144:	f883 204c 	strb.w	r2, [r3, #76]	; 0x4c
 8001148:	463a      	mov	r2, r7
 800114a:	e7d2      	b.n	80010f2 <HAL_PCD_IRQHandler+0x79a>
 800114c:	2a3e      	cmp	r2, #62	; 0x3e
 800114e:	d80c      	bhi.n	800116a <HAL_PCD_IRQHandler+0x812>
 8001150:	ea4f 0e52 	mov.w	lr, r2, lsr #1
 8001154:	07d2      	lsls	r2, r2, #31
 8001156:	bf48      	it	mi
 8001158:	f10e 0e01 	addmi.w	lr, lr, #1
 800115c:	ea4f 2e8e 	mov.w	lr, lr, lsl #10
 8001160:	fa1f fe8e 	uxth.w	lr, lr
 8001164:	f82c e007 	strh.w	lr, [ip, r7]
 8001168:	e7e0      	b.n	800112c <HAL_PCD_IRQHandler+0x7d4>
 800116a:	ea4f 1e52 	mov.w	lr, r2, lsr #5
 800116e:	06d2      	lsls	r2, r2, #27
 8001170:	bf08      	it	eq
 8001172:	f10e 3eff 	addeq.w	lr, lr, #4294967295
 8001176:	ea48 2e8e 	orr.w	lr, r8, lr, lsl #10
 800117a:	e7f1      	b.n	8001160 <HAL_PCD_IRQHandler+0x808>
 800117c:	2f01      	cmp	r7, #1
 800117e:	d1d5      	bne.n	800112c <HAL_PCD_IRQHandler+0x7d4>
 8001180:	f8b0 2050 	ldrh.w	r2, [r0, #80]	; 0x50
 8001184:	f200 470c 	addw	r7, r0, #1036	; 0x40c
 8001188:	4417      	add	r7, r2
 800118a:	f895 2028 	ldrb.w	r2, [r5, #40]	; 0x28
 800118e:	0112      	lsls	r2, r2, #4
 8001190:	52bb      	strh	r3, [r7, r2]
 8001192:	e7cb      	b.n	800112c <HAL_PCD_IRQHandler+0x7d4>
 8001194:	ffff8f0f 	.word	0xffff8f0f
 8001198:	ffff8000 	.word	0xffff8000

0800119c <HAL_PCD_EP_Open>:
 800119c:	f011 0f80 	tst.w	r1, #128	; 0x80
 80011a0:	b570      	push	{r4, r5, r6, lr}
 80011a2:	f001 0507 	and.w	r5, r1, #7
 80011a6:	4604      	mov	r4, r0
 80011a8:	f04f 0128 	mov.w	r1, #40	; 0x28
 80011ac:	d01c      	beq.n	80011e8 <HAL_PCD_EP_Open+0x4c>
 80011ae:	fb05 1101 	mla	r1, r5, r1, r1
 80011b2:	4401      	add	r1, r0
 80011b4:	2001      	movs	r0, #1
 80011b6:	7048      	strb	r0, [r1, #1]
 80011b8:	610a      	str	r2, [r1, #16]
 80011ba:	784a      	ldrb	r2, [r1, #1]
 80011bc:	700d      	strb	r5, [r1, #0]
 80011be:	70cb      	strb	r3, [r1, #3]
 80011c0:	b102      	cbz	r2, 80011c4 <HAL_PCD_EP_Open+0x28>
 80011c2:	81cd      	strh	r5, [r1, #14]
 80011c4:	2b02      	cmp	r3, #2
 80011c6:	bf04      	itt	eq
 80011c8:	2300      	moveq	r3, #0
 80011ca:	710b      	strbeq	r3, [r1, #4]
 80011cc:	f894 32a8 	ldrb.w	r3, [r4, #680]	; 0x2a8
 80011d0:	2b01      	cmp	r3, #1
 80011d2:	d013      	beq.n	80011fc <HAL_PCD_EP_Open+0x60>
 80011d4:	2301      	movs	r3, #1
 80011d6:	6820      	ldr	r0, [r4, #0]
 80011d8:	f884 32a8 	strb.w	r3, [r4, #680]	; 0x2a8
 80011dc:	f000 fe6c 	bl	8001eb8 <USB_ActivateEndpoint>
 80011e0:	2000      	movs	r0, #0
 80011e2:	f884 02a8 	strb.w	r0, [r4, #680]	; 0x2a8
 80011e6:	bd70      	pop	{r4, r5, r6, pc}
 80011e8:	2600      	movs	r6, #0
 80011ea:	fb01 f005 	mul.w	r0, r1, r5
 80011ee:	f500 71b4 	add.w	r1, r0, #360	; 0x168
 80011f2:	4420      	add	r0, r4
 80011f4:	4421      	add	r1, r4
 80011f6:	f880 6169 	strb.w	r6, [r0, #361]	; 0x169
 80011fa:	e7dd      	b.n	80011b8 <HAL_PCD_EP_Open+0x1c>
 80011fc:	2002      	movs	r0, #2
 80011fe:	e7f2      	b.n	80011e6 <HAL_PCD_EP_Open+0x4a>

08001200 <HAL_PCD_EP_Close>:
 8001200:	f011 0f80 	tst.w	r1, #128	; 0x80
 8001204:	b510      	push	{r4, lr}
 8001206:	f001 0207 	and.w	r2, r1, #7
 800120a:	4604      	mov	r4, r0
 800120c:	f04f 0128 	mov.w	r1, #40	; 0x28
 8001210:	d013      	beq.n	800123a <HAL_PCD_EP_Close+0x3a>
 8001212:	2301      	movs	r3, #1
 8001214:	fb02 1101 	mla	r1, r2, r1, r1
 8001218:	4401      	add	r1, r0
 800121a:	704b      	strb	r3, [r1, #1]
 800121c:	700a      	strb	r2, [r1, #0]
 800121e:	f894 32a8 	ldrb.w	r3, [r4, #680]	; 0x2a8
 8001222:	2b01      	cmp	r3, #1
 8001224:	d013      	beq.n	800124e <HAL_PCD_EP_Close+0x4e>
 8001226:	2301      	movs	r3, #1
 8001228:	6820      	ldr	r0, [r4, #0]
 800122a:	f884 32a8 	strb.w	r3, [r4, #680]	; 0x2a8
 800122e:	f000 ff81 	bl	8002134 <USB_DeactivateEndpoint>
 8001232:	2000      	movs	r0, #0
 8001234:	f884 02a8 	strb.w	r0, [r4, #680]	; 0x2a8
 8001238:	bd10      	pop	{r4, pc}
 800123a:	fb01 f302 	mul.w	r3, r1, r2
 800123e:	f503 71b4 	add.w	r1, r3, #360	; 0x168
 8001242:	4401      	add	r1, r0
 8001244:	4403      	add	r3, r0
 8001246:	2000      	movs	r0, #0
 8001248:	f883 0169 	strb.w	r0, [r3, #361]	; 0x169
 800124c:	e7e6      	b.n	800121c <HAL_PCD_EP_Close+0x1c>
 800124e:	2002      	movs	r0, #2
 8001250:	e7f2      	b.n	8001238 <HAL_PCD_EP_Close+0x38>

08001252 <HAL_PCD_EP_Receive>:
 8001252:	b570      	push	{r4, r5, r6, lr}
 8001254:	2428      	movs	r4, #40	; 0x28
 8001256:	2600      	movs	r6, #0
 8001258:	f001 0107 	and.w	r1, r1, #7
 800125c:	434c      	muls	r4, r1
 800125e:	1905      	adds	r5, r0, r4
 8001260:	f885 1168 	strb.w	r1, [r5, #360]	; 0x168
 8001264:	f504 71b4 	add.w	r1, r4, #360	; 0x168
 8001268:	4401      	add	r1, r0
 800126a:	f8c5 217c 	str.w	r2, [r5, #380]	; 0x17c
 800126e:	f8c5 3180 	str.w	r3, [r5, #384]	; 0x180
 8001272:	f8c5 6184 	str.w	r6, [r5, #388]	; 0x184
 8001276:	f885 6169 	strb.w	r6, [r5, #361]	; 0x169
 800127a:	6800      	ldr	r0, [r0, #0]
 800127c:	f001 f89e 	bl	80023bc <USB_EPStartXfer>
 8001280:	4630      	mov	r0, r6
 8001282:	bd70      	pop	{r4, r5, r6, pc}

08001284 <HAL_PCD_EP_GetRxCount>:
 8001284:	2328      	movs	r3, #40	; 0x28
 8001286:	f001 0107 	and.w	r1, r1, #7
 800128a:	fb03 0101 	mla	r1, r3, r1, r0
 800128e:	f8d1 0184 	ldr.w	r0, [r1, #388]	; 0x184
 8001292:	4770      	bx	lr

08001294 <HAL_PCD_EP_Transmit>:
 8001294:	b570      	push	{r4, r5, r6, lr}
 8001296:	2528      	movs	r5, #40	; 0x28
 8001298:	f001 0107 	and.w	r1, r1, #7
 800129c:	fb05 0401 	mla	r4, r5, r1, r0
 80012a0:	2600      	movs	r6, #0
 80012a2:	e9c4 230f 	strd	r2, r3, [r4, #60]	; 0x3c
 80012a6:	2201      	movs	r2, #1
 80012a8:	fb01 5505 	mla	r5, r1, r5, r5
 80012ac:	f884 1028 	strb.w	r1, [r4, #40]	; 0x28
 80012b0:	f884 204c 	strb.w	r2, [r4, #76]	; 0x4c
 80012b4:	1941      	adds	r1, r0, r5
 80012b6:	64a3      	str	r3, [r4, #72]	; 0x48
 80012b8:	6466      	str	r6, [r4, #68]	; 0x44
 80012ba:	f884 2029 	strb.w	r2, [r4, #41]	; 0x29
 80012be:	6800      	ldr	r0, [r0, #0]
 80012c0:	f001 f87c 	bl	80023bc <USB_EPStartXfer>
 80012c4:	4630      	mov	r0, r6
 80012c6:	bd70      	pop	{r4, r5, r6, pc}

080012c8 <HAL_PCD_EP_SetStall>:
 80012c8:	b538      	push	{r3, r4, r5, lr}
 80012ca:	6843      	ldr	r3, [r0, #4]
 80012cc:	f001 0507 	and.w	r5, r1, #7
 80012d0:	429d      	cmp	r5, r3
 80012d2:	4604      	mov	r4, r0
 80012d4:	d828      	bhi.n	8001328 <HAL_PCD_EP_SetStall+0x60>
 80012d6:	f011 0f80 	tst.w	r1, #128	; 0x80
 80012da:	f04f 0328 	mov.w	r3, #40	; 0x28
 80012de:	d01a      	beq.n	8001316 <HAL_PCD_EP_SetStall+0x4e>
 80012e0:	fb05 3303 	mla	r3, r5, r3, r3
 80012e4:	18c1      	adds	r1, r0, r3
 80012e6:	2301      	movs	r3, #1
 80012e8:	704b      	strb	r3, [r1, #1]
 80012ea:	2301      	movs	r3, #1
 80012ec:	700d      	strb	r5, [r1, #0]
 80012ee:	708b      	strb	r3, [r1, #2]
 80012f0:	f894 22a8 	ldrb.w	r2, [r4, #680]	; 0x2a8
 80012f4:	429a      	cmp	r2, r3
 80012f6:	d019      	beq.n	800132c <HAL_PCD_EP_SetStall+0x64>
 80012f8:	f884 32a8 	strb.w	r3, [r4, #680]	; 0x2a8
 80012fc:	6820      	ldr	r0, [r4, #0]
 80012fe:	f000 ffdf 	bl	80022c0 <USB_EPSetStall>
 8001302:	b925      	cbnz	r5, 800130e <HAL_PCD_EP_SetStall+0x46>
 8001304:	f504 712c 	add.w	r1, r4, #688	; 0x2b0
 8001308:	6820      	ldr	r0, [r4, #0]
 800130a:	f001 f845 	bl	8002398 <USB_EP0_OutStart>
 800130e:	2000      	movs	r0, #0
 8001310:	f884 02a8 	strb.w	r0, [r4, #680]	; 0x2a8
 8001314:	bd38      	pop	{r3, r4, r5, pc}
 8001316:	2200      	movs	r2, #0
 8001318:	434b      	muls	r3, r1
 800131a:	f503 71b4 	add.w	r1, r3, #360	; 0x168
 800131e:	4403      	add	r3, r0
 8001320:	4401      	add	r1, r0
 8001322:	f883 2169 	strb.w	r2, [r3, #361]	; 0x169
 8001326:	e7e0      	b.n	80012ea <HAL_PCD_EP_SetStall+0x22>
 8001328:	2001      	movs	r0, #1
 800132a:	e7f3      	b.n	8001314 <HAL_PCD_EP_SetStall+0x4c>
 800132c:	2002      	movs	r0, #2
 800132e:	e7f1      	b.n	8001314 <HAL_PCD_EP_SetStall+0x4c>

08001330 <HAL_PCD_EP_ClrStall>:
 8001330:	b538      	push	{r3, r4, r5, lr}
 8001332:	6843      	ldr	r3, [r0, #4]
 8001334:	f001 020f 	and.w	r2, r1, #15
 8001338:	429a      	cmp	r2, r3
 800133a:	4604      	mov	r4, r0
 800133c:	d826      	bhi.n	800138c <HAL_PCD_EP_ClrStall+0x5c>
 800133e:	f011 0f80 	tst.w	r1, #128	; 0x80
 8001342:	f001 0207 	and.w	r2, r1, #7
 8001346:	f04f 0128 	mov.w	r1, #40	; 0x28
 800134a:	d015      	beq.n	8001378 <HAL_PCD_EP_ClrStall+0x48>
 800134c:	2301      	movs	r3, #1
 800134e:	fb02 1101 	mla	r1, r2, r1, r1
 8001352:	4401      	add	r1, r0
 8001354:	704b      	strb	r3, [r1, #1]
 8001356:	2500      	movs	r5, #0
 8001358:	700a      	strb	r2, [r1, #0]
 800135a:	708d      	strb	r5, [r1, #2]
 800135c:	f894 32a8 	ldrb.w	r3, [r4, #680]	; 0x2a8
 8001360:	2b01      	cmp	r3, #1
 8001362:	d015      	beq.n	8001390 <HAL_PCD_EP_ClrStall+0x60>
 8001364:	2301      	movs	r3, #1
 8001366:	6820      	ldr	r0, [r4, #0]
 8001368:	f884 32a8 	strb.w	r3, [r4, #680]	; 0x2a8
 800136c:	f000 ffc4 	bl	80022f8 <USB_EPClearStall>
 8001370:	4628      	mov	r0, r5
 8001372:	f884 52a8 	strb.w	r5, [r4, #680]	; 0x2a8
 8001376:	bd38      	pop	{r3, r4, r5, pc}
 8001378:	fb01 f302 	mul.w	r3, r1, r2
 800137c:	f503 71b4 	add.w	r1, r3, #360	; 0x168
 8001380:	4401      	add	r1, r0
 8001382:	4403      	add	r3, r0
 8001384:	2000      	movs	r0, #0
 8001386:	f883 0169 	strb.w	r0, [r3, #361]	; 0x169
 800138a:	e7e4      	b.n	8001356 <HAL_PCD_EP_ClrStall+0x26>
 800138c:	2001      	movs	r0, #1
 800138e:	e7f2      	b.n	8001376 <HAL_PCD_EP_ClrStall+0x46>
 8001390:	2002      	movs	r0, #2
 8001392:	e7f0      	b.n	8001376 <HAL_PCD_EP_ClrStall+0x46>

08001394 <HAL_PCDEx_PMAConfig>:
 8001394:	b510      	push	{r4, lr}
 8001396:	2428      	movs	r4, #40	; 0x28
 8001398:	f011 0f80 	tst.w	r1, #128	; 0x80
 800139c:	bf1b      	ittet	ne
 800139e:	f001 0107 	andne.w	r1, r1, #7
 80013a2:	fb01 4104 	mlane	r1, r1, r4, r4
 80013a6:	fb04 0001 	mlaeq	r0, r4, r1, r0
 80013aa:	1840      	addne	r0, r0, r1
 80013ac:	bf08      	it	eq
 80013ae:	f500 70b4 	addeq.w	r0, r0, #360	; 0x168
 80013b2:	b299      	uxth	r1, r3
 80013b4:	b91a      	cbnz	r2, 80013be <HAL_PCDEx_PMAConfig+0x2a>
 80013b6:	7302      	strb	r2, [r0, #12]
 80013b8:	80c1      	strh	r1, [r0, #6]
 80013ba:	2000      	movs	r0, #0
 80013bc:	bd10      	pop	{r4, pc}
 80013be:	2201      	movs	r2, #1
 80013c0:	0c1b      	lsrs	r3, r3, #16
 80013c2:	7302      	strb	r2, [r0, #12]
 80013c4:	8101      	strh	r1, [r0, #8]
 80013c6:	8143      	strh	r3, [r0, #10]
 80013c8:	e7f7      	b.n	80013ba <HAL_PCDEx_PMAConfig+0x26>
	...

080013cc <HAL_RCC_OscConfig>:
 80013cc:	e92d 41f3 	stmdb	sp!, {r0, r1, r4, r5, r6, r7, r8, lr}
 80013d0:	4605      	mov	r5, r0
 80013d2:	b908      	cbnz	r0, 80013d8 <HAL_RCC_OscConfig+0xc>
 80013d4:	2001      	movs	r0, #1
 80013d6:	e03c      	b.n	8001452 <HAL_RCC_OscConfig+0x86>
 80013d8:	6803      	ldr	r3, [r0, #0]
 80013da:	07db      	lsls	r3, r3, #31
 80013dc:	d410      	bmi.n	8001400 <HAL_RCC_OscConfig+0x34>
 80013de:	682b      	ldr	r3, [r5, #0]
 80013e0:	079f      	lsls	r7, r3, #30
 80013e2:	d45d      	bmi.n	80014a0 <HAL_RCC_OscConfig+0xd4>
 80013e4:	682b      	ldr	r3, [r5, #0]
 80013e6:	0719      	lsls	r1, r3, #28
 80013e8:	f100 8094 	bmi.w	8001514 <HAL_RCC_OscConfig+0x148>
 80013ec:	682b      	ldr	r3, [r5, #0]
 80013ee:	075a      	lsls	r2, r3, #29
 80013f0:	f100 80be 	bmi.w	8001570 <HAL_RCC_OscConfig+0x1a4>
 80013f4:	69e8      	ldr	r0, [r5, #28]
 80013f6:	2800      	cmp	r0, #0
 80013f8:	f040 812c 	bne.w	8001654 <HAL_RCC_OscConfig+0x288>
 80013fc:	2000      	movs	r0, #0
 80013fe:	e028      	b.n	8001452 <HAL_RCC_OscConfig+0x86>
 8001400:	4c8f      	ldr	r4, [pc, #572]	; (8001640 <HAL_RCC_OscConfig+0x274>)
 8001402:	6863      	ldr	r3, [r4, #4]
 8001404:	f003 030c 	and.w	r3, r3, #12
 8001408:	2b04      	cmp	r3, #4
 800140a:	d007      	beq.n	800141c <HAL_RCC_OscConfig+0x50>
 800140c:	6863      	ldr	r3, [r4, #4]
 800140e:	f003 030c 	and.w	r3, r3, #12
 8001412:	2b08      	cmp	r3, #8
 8001414:	d109      	bne.n	800142a <HAL_RCC_OscConfig+0x5e>
 8001416:	6863      	ldr	r3, [r4, #4]
 8001418:	03de      	lsls	r6, r3, #15
 800141a:	d506      	bpl.n	800142a <HAL_RCC_OscConfig+0x5e>
 800141c:	6823      	ldr	r3, [r4, #0]
 800141e:	039c      	lsls	r4, r3, #14
 8001420:	d5dd      	bpl.n	80013de <HAL_RCC_OscConfig+0x12>
 8001422:	686b      	ldr	r3, [r5, #4]
 8001424:	2b00      	cmp	r3, #0
 8001426:	d1da      	bne.n	80013de <HAL_RCC_OscConfig+0x12>
 8001428:	e7d4      	b.n	80013d4 <HAL_RCC_OscConfig+0x8>
 800142a:	686b      	ldr	r3, [r5, #4]
 800142c:	f5b3 3f80 	cmp.w	r3, #65536	; 0x10000
 8001430:	d112      	bne.n	8001458 <HAL_RCC_OscConfig+0x8c>
 8001432:	6823      	ldr	r3, [r4, #0]
 8001434:	f443 3380 	orr.w	r3, r3, #65536	; 0x10000
 8001438:	6023      	str	r3, [r4, #0]
 800143a:	f7ff f89f 	bl	800057c <HAL_GetTick>
 800143e:	4606      	mov	r6, r0
 8001440:	6823      	ldr	r3, [r4, #0]
 8001442:	0398      	lsls	r0, r3, #14
 8001444:	d4cb      	bmi.n	80013de <HAL_RCC_OscConfig+0x12>
 8001446:	f7ff f899 	bl	800057c <HAL_GetTick>
 800144a:	1b80      	subs	r0, r0, r6
 800144c:	2864      	cmp	r0, #100	; 0x64
 800144e:	d9f7      	bls.n	8001440 <HAL_RCC_OscConfig+0x74>
 8001450:	2003      	movs	r0, #3
 8001452:	b002      	add	sp, #8
 8001454:	e8bd 81f0 	ldmia.w	sp!, {r4, r5, r6, r7, r8, pc}
 8001458:	b99b      	cbnz	r3, 8001482 <HAL_RCC_OscConfig+0xb6>
 800145a:	6823      	ldr	r3, [r4, #0]
 800145c:	f423 3380 	bic.w	r3, r3, #65536	; 0x10000
 8001460:	6023      	str	r3, [r4, #0]
 8001462:	6823      	ldr	r3, [r4, #0]
 8001464:	f423 2380 	bic.w	r3, r3, #262144	; 0x40000
 8001468:	6023      	str	r3, [r4, #0]
 800146a:	f7ff f887 	bl	800057c <HAL_GetTick>
 800146e:	4606      	mov	r6, r0
 8001470:	6823      	ldr	r3, [r4, #0]
 8001472:	0399      	lsls	r1, r3, #14
 8001474:	d5b3      	bpl.n	80013de <HAL_RCC_OscConfig+0x12>
 8001476:	f7ff f881 	bl	800057c <HAL_GetTick>
 800147a:	1b80      	subs	r0, r0, r6
 800147c:	2864      	cmp	r0, #100	; 0x64
 800147e:	d9f7      	bls.n	8001470 <HAL_RCC_OscConfig+0xa4>
 8001480:	e7e6      	b.n	8001450 <HAL_RCC_OscConfig+0x84>
 8001482:	f5b3 2fa0 	cmp.w	r3, #327680	; 0x50000
 8001486:	6823      	ldr	r3, [r4, #0]
 8001488:	d103      	bne.n	8001492 <HAL_RCC_OscConfig+0xc6>
 800148a:	f443 2380 	orr.w	r3, r3, #262144	; 0x40000
 800148e:	6023      	str	r3, [r4, #0]
 8001490:	e7cf      	b.n	8001432 <HAL_RCC_OscConfig+0x66>
 8001492:	f423 3380 	bic.w	r3, r3, #65536	; 0x10000
 8001496:	6023      	str	r3, [r4, #0]
 8001498:	6823      	ldr	r3, [r4, #0]
 800149a:	f423 2380 	bic.w	r3, r3, #262144	; 0x40000
 800149e:	e7cb      	b.n	8001438 <HAL_RCC_OscConfig+0x6c>
 80014a0:	4c67      	ldr	r4, [pc, #412]	; (8001640 <HAL_RCC_OscConfig+0x274>)
 80014a2:	6863      	ldr	r3, [r4, #4]
 80014a4:	f013 0f0c 	tst.w	r3, #12
 80014a8:	d007      	beq.n	80014ba <HAL_RCC_OscConfig+0xee>
 80014aa:	6863      	ldr	r3, [r4, #4]
 80014ac:	f003 030c 	and.w	r3, r3, #12
 80014b0:	2b08      	cmp	r3, #8
 80014b2:	d110      	bne.n	80014d6 <HAL_RCC_OscConfig+0x10a>
 80014b4:	6863      	ldr	r3, [r4, #4]
 80014b6:	03da      	lsls	r2, r3, #15
 80014b8:	d40d      	bmi.n	80014d6 <HAL_RCC_OscConfig+0x10a>
 80014ba:	6823      	ldr	r3, [r4, #0]
 80014bc:	079b      	lsls	r3, r3, #30
 80014be:	d502      	bpl.n	80014c6 <HAL_RCC_OscConfig+0xfa>
 80014c0:	692b      	ldr	r3, [r5, #16]
 80014c2:	2b01      	cmp	r3, #1
 80014c4:	d186      	bne.n	80013d4 <HAL_RCC_OscConfig+0x8>
 80014c6:	6823      	ldr	r3, [r4, #0]
 80014c8:	696a      	ldr	r2, [r5, #20]
 80014ca:	f023 03f8 	bic.w	r3, r3, #248	; 0xf8
 80014ce:	ea43 03c2 	orr.w	r3, r3, r2, lsl #3
 80014d2:	6023      	str	r3, [r4, #0]
 80014d4:	e786      	b.n	80013e4 <HAL_RCC_OscConfig+0x18>
 80014d6:	692a      	ldr	r2, [r5, #16]
 80014d8:	4b5a      	ldr	r3, [pc, #360]	; (8001644 <HAL_RCC_OscConfig+0x278>)
 80014da:	b16a      	cbz	r2, 80014f8 <HAL_RCC_OscConfig+0x12c>
 80014dc:	2201      	movs	r2, #1
 80014de:	601a      	str	r2, [r3, #0]
 80014e0:	f7ff f84c 	bl	800057c <HAL_GetTick>
 80014e4:	4606      	mov	r6, r0
 80014e6:	6823      	ldr	r3, [r4, #0]
 80014e8:	079f      	lsls	r7, r3, #30
 80014ea:	d4ec      	bmi.n	80014c6 <HAL_RCC_OscConfig+0xfa>
 80014ec:	f7ff f846 	bl	800057c <HAL_GetTick>
 80014f0:	1b80      	subs	r0, r0, r6
 80014f2:	2802      	cmp	r0, #2
 80014f4:	d9f7      	bls.n	80014e6 <HAL_RCC_OscConfig+0x11a>
 80014f6:	e7ab      	b.n	8001450 <HAL_RCC_OscConfig+0x84>
 80014f8:	601a      	str	r2, [r3, #0]
 80014fa:	f7ff f83f 	bl	800057c <HAL_GetTick>
 80014fe:	4606      	mov	r6, r0
 8001500:	6823      	ldr	r3, [r4, #0]
 8001502:	0798      	lsls	r0, r3, #30
 8001504:	f57f af6e 	bpl.w	80013e4 <HAL_RCC_OscConfig+0x18>
 8001508:	f7ff f838 	bl	800057c <HAL_GetTick>
 800150c:	1b80      	subs	r0, r0, r6
 800150e:	2802      	cmp	r0, #2
 8001510:	d9f6      	bls.n	8001500 <HAL_RCC_OscConfig+0x134>
 8001512:	e79d      	b.n	8001450 <HAL_RCC_OscConfig+0x84>
 8001514:	69aa      	ldr	r2, [r5, #24]
 8001516:	4c4a      	ldr	r4, [pc, #296]	; (8001640 <HAL_RCC_OscConfig+0x274>)
 8001518:	4b4b      	ldr	r3, [pc, #300]	; (8001648 <HAL_RCC_OscConfig+0x27c>)
 800151a:	b1da      	cbz	r2, 8001554 <HAL_RCC_OscConfig+0x188>
 800151c:	2201      	movs	r2, #1
 800151e:	601a      	str	r2, [r3, #0]
 8001520:	f7ff f82c 	bl	800057c <HAL_GetTick>
 8001524:	4606      	mov	r6, r0
 8001526:	6a63      	ldr	r3, [r4, #36]	; 0x24
 8001528:	079b      	lsls	r3, r3, #30
 800152a:	d50d      	bpl.n	8001548 <HAL_RCC_OscConfig+0x17c>
 800152c:	f44f 52fa 	mov.w	r2, #8000	; 0x1f40
 8001530:	4b46      	ldr	r3, [pc, #280]	; (800164c <HAL_RCC_OscConfig+0x280>)
 8001532:	681b      	ldr	r3, [r3, #0]
 8001534:	fbb3 f3f2 	udiv	r3, r3, r2
 8001538:	9301      	str	r3, [sp, #4]
 800153a:	bf00      	nop
 800153c:	9b01      	ldr	r3, [sp, #4]
 800153e:	1e5a      	subs	r2, r3, #1
 8001540:	9201      	str	r2, [sp, #4]
 8001542:	2b00      	cmp	r3, #0
 8001544:	d1f9      	bne.n	800153a <HAL_RCC_OscConfig+0x16e>
 8001546:	e751      	b.n	80013ec <HAL_RCC_OscConfig+0x20>
 8001548:	f7ff f818 	bl	800057c <HAL_GetTick>
 800154c:	1b80      	subs	r0, r0, r6
 800154e:	2802      	cmp	r0, #2
 8001550:	d9e9      	bls.n	8001526 <HAL_RCC_OscConfig+0x15a>
 8001552:	e77d      	b.n	8001450 <HAL_RCC_OscConfig+0x84>
 8001554:	601a      	str	r2, [r3, #0]
 8001556:	f7ff f811 	bl	800057c <HAL_GetTick>
 800155a:	4606      	mov	r6, r0
 800155c:	6a63      	ldr	r3, [r4, #36]	; 0x24
 800155e:	079f      	lsls	r7, r3, #30
 8001560:	f57f af44 	bpl.w	80013ec <HAL_RCC_OscConfig+0x20>
 8001564:	f7ff f80a 	bl	800057c <HAL_GetTick>
 8001568:	1b80      	subs	r0, r0, r6
 800156a:	2802      	cmp	r0, #2
 800156c:	d9f6      	bls.n	800155c <HAL_RCC_OscConfig+0x190>
 800156e:	e76f      	b.n	8001450 <HAL_RCC_OscConfig+0x84>
 8001570:	4c33      	ldr	r4, [pc, #204]	; (8001640 <HAL_RCC_OscConfig+0x274>)
 8001572:	69e3      	ldr	r3, [r4, #28]
 8001574:	00d8      	lsls	r0, r3, #3
 8001576:	d424      	bmi.n	80015c2 <HAL_RCC_OscConfig+0x1f6>
 8001578:	2701      	movs	r7, #1
 800157a:	69e3      	ldr	r3, [r4, #28]
 800157c:	f043 5380 	orr.w	r3, r3, #268435456	; 0x10000000
 8001580:	61e3      	str	r3, [r4, #28]
 8001582:	69e3      	ldr	r3, [r4, #28]
 8001584:	f003 5380 	and.w	r3, r3, #268435456	; 0x10000000
 8001588:	9300      	str	r3, [sp, #0]
 800158a:	9b00      	ldr	r3, [sp, #0]
 800158c:	4e30      	ldr	r6, [pc, #192]	; (8001650 <HAL_RCC_OscConfig+0x284>)
 800158e:	6833      	ldr	r3, [r6, #0]
 8001590:	05d9      	lsls	r1, r3, #23
 8001592:	d518      	bpl.n	80015c6 <HAL_RCC_OscConfig+0x1fa>
 8001594:	68eb      	ldr	r3, [r5, #12]
 8001596:	2b01      	cmp	r3, #1
 8001598:	d126      	bne.n	80015e8 <HAL_RCC_OscConfig+0x21c>
 800159a:	6a23      	ldr	r3, [r4, #32]
 800159c:	f043 0301 	orr.w	r3, r3, #1
 80015a0:	6223      	str	r3, [r4, #32]
 80015a2:	f7fe ffeb 	bl	800057c <HAL_GetTick>
 80015a6:	f241 3688 	movw	r6, #5000	; 0x1388
 80015aa:	4680      	mov	r8, r0
 80015ac:	6a23      	ldr	r3, [r4, #32]
 80015ae:	079b      	lsls	r3, r3, #30
 80015b0:	d53f      	bpl.n	8001632 <HAL_RCC_OscConfig+0x266>
 80015b2:	2f00      	cmp	r7, #0
 80015b4:	f43f af1e 	beq.w	80013f4 <HAL_RCC_OscConfig+0x28>
 80015b8:	69e3      	ldr	r3, [r4, #28]
 80015ba:	f023 5380 	bic.w	r3, r3, #268435456	; 0x10000000
 80015be:	61e3      	str	r3, [r4, #28]
 80015c0:	e718      	b.n	80013f4 <HAL_RCC_OscConfig+0x28>
 80015c2:	2700      	movs	r7, #0
 80015c4:	e7e2      	b.n	800158c <HAL_RCC_OscConfig+0x1c0>
 80015c6:	6833      	ldr	r3, [r6, #0]
 80015c8:	f443 7380 	orr.w	r3, r3, #256	; 0x100
 80015cc:	6033      	str	r3, [r6, #0]
 80015ce:	f7fe ffd5 	bl	800057c <HAL_GetTick>
 80015d2:	4680      	mov	r8, r0
 80015d4:	6833      	ldr	r3, [r6, #0]
 80015d6:	05da      	lsls	r2, r3, #23
 80015d8:	d4dc      	bmi.n	8001594 <HAL_RCC_OscConfig+0x1c8>
 80015da:	f7fe ffcf 	bl	800057c <HAL_GetTick>
 80015de:	eba0 0008 	sub.w	r0, r0, r8
 80015e2:	2864      	cmp	r0, #100	; 0x64
 80015e4:	d9f6      	bls.n	80015d4 <HAL_RCC_OscConfig+0x208>
 80015e6:	e733      	b.n	8001450 <HAL_RCC_OscConfig+0x84>
 80015e8:	b9ab      	cbnz	r3, 8001616 <HAL_RCC_OscConfig+0x24a>
 80015ea:	6a23      	ldr	r3, [r4, #32]
 80015ec:	f241 3888 	movw	r8, #5000	; 0x1388
 80015f0:	f023 0301 	bic.w	r3, r3, #1
 80015f4:	6223      	str	r3, [r4, #32]
 80015f6:	6a23      	ldr	r3, [r4, #32]
 80015f8:	f023 0304 	bic.w	r3, r3, #4
 80015fc:	6223      	str	r3, [r4, #32]
 80015fe:	f7fe ffbd 	bl	800057c <HAL_GetTick>
 8001602:	4606      	mov	r6, r0
 8001604:	6a23      	ldr	r3, [r4, #32]
 8001606:	0798      	lsls	r0, r3, #30
 8001608:	d5d3      	bpl.n	80015b2 <HAL_RCC_OscConfig+0x1e6>
 800160a:	f7fe ffb7 	bl	800057c <HAL_GetTick>
 800160e:	1b80      	subs	r0, r0, r6
 8001610:	4540      	cmp	r0, r8
 8001612:	d9f7      	bls.n	8001604 <HAL_RCC_OscConfig+0x238>
 8001614:	e71c      	b.n	8001450 <HAL_RCC_OscConfig+0x84>
 8001616:	2b05      	cmp	r3, #5
 8001618:	6a23      	ldr	r3, [r4, #32]
 800161a:	d103      	bne.n	8001624 <HAL_RCC_OscConfig+0x258>
 800161c:	f043 0304 	orr.w	r3, r3, #4
 8001620:	6223      	str	r3, [r4, #32]
 8001622:	e7ba      	b.n	800159a <HAL_RCC_OscConfig+0x1ce>
 8001624:	f023 0301 	bic.w	r3, r3, #1
 8001628:	6223      	str	r3, [r4, #32]
 800162a:	6a23      	ldr	r3, [r4, #32]
 800162c:	f023 0304 	bic.w	r3, r3, #4
 8001630:	e7b6      	b.n	80015a0 <HAL_RCC_OscConfig+0x1d4>
 8001632:	f7fe ffa3 	bl	800057c <HAL_GetTick>
 8001636:	eba0 0008 	sub.w	r0, r0, r8
 800163a:	42b0      	cmp	r0, r6
 800163c:	d9b6      	bls.n	80015ac <HAL_RCC_OscConfig+0x1e0>
 800163e:	e707      	b.n	8001450 <HAL_RCC_OscConfig+0x84>
 8001640:	40021000 	.word	0x40021000
 8001644:	42420000 	.word	0x42420000
 8001648:	42420480 	.word	0x42420480
 800164c:	20000000 	.word	0x20000000
 8001650:	40007000 	.word	0x40007000
 8001654:	4b2a      	ldr	r3, [pc, #168]	; (8001700 <HAL_RCC_OscConfig+0x334>)
 8001656:	685a      	ldr	r2, [r3, #4]
 8001658:	461c      	mov	r4, r3
 800165a:	f002 020c 	and.w	r2, r2, #12
 800165e:	2a08      	cmp	r2, #8
 8001660:	d03d      	beq.n	80016de <HAL_RCC_OscConfig+0x312>
 8001662:	2300      	movs	r3, #0
 8001664:	4e27      	ldr	r6, [pc, #156]	; (8001704 <HAL_RCC_OscConfig+0x338>)
 8001666:	2802      	cmp	r0, #2
 8001668:	6033      	str	r3, [r6, #0]
 800166a:	d12b      	bne.n	80016c4 <HAL_RCC_OscConfig+0x2f8>
 800166c:	f7fe ff86 	bl	800057c <HAL_GetTick>
 8001670:	4607      	mov	r7, r0
 8001672:	6823      	ldr	r3, [r4, #0]
 8001674:	0199      	lsls	r1, r3, #6
 8001676:	d41f      	bmi.n	80016b8 <HAL_RCC_OscConfig+0x2ec>
 8001678:	6a2b      	ldr	r3, [r5, #32]
 800167a:	f5b3 3f80 	cmp.w	r3, #65536	; 0x10000
 800167e:	d105      	bne.n	800168c <HAL_RCC_OscConfig+0x2c0>
 8001680:	6862      	ldr	r2, [r4, #4]
 8001682:	68a9      	ldr	r1, [r5, #8]
 8001684:	f422 3200 	bic.w	r2, r2, #131072	; 0x20000
 8001688:	430a      	orrs	r2, r1
 800168a:	6062      	str	r2, [r4, #4]
 800168c:	6a69      	ldr	r1, [r5, #36]	; 0x24
 800168e:	6862      	ldr	r2, [r4, #4]
 8001690:	430b      	orrs	r3, r1
 8001692:	f422 1274 	bic.w	r2, r2, #3997696	; 0x3d0000
 8001696:	4313      	orrs	r3, r2
 8001698:	6063      	str	r3, [r4, #4]
 800169a:	2301      	movs	r3, #1
 800169c:	6033      	str	r3, [r6, #0]
 800169e:	f7fe ff6d 	bl	800057c <HAL_GetTick>
 80016a2:	4605      	mov	r5, r0
 80016a4:	6823      	ldr	r3, [r4, #0]
 80016a6:	019a      	lsls	r2, r3, #6
 80016a8:	f53f aea8 	bmi.w	80013fc <HAL_RCC_OscConfig+0x30>
 80016ac:	f7fe ff66 	bl	800057c <HAL_GetTick>
 80016b0:	1b40      	subs	r0, r0, r5
 80016b2:	2802      	cmp	r0, #2
 80016b4:	d9f6      	bls.n	80016a4 <HAL_RCC_OscConfig+0x2d8>
 80016b6:	e6cb      	b.n	8001450 <HAL_RCC_OscConfig+0x84>
 80016b8:	f7fe ff60 	bl	800057c <HAL_GetTick>
 80016bc:	1bc0      	subs	r0, r0, r7
 80016be:	2802      	cmp	r0, #2
 80016c0:	d9d7      	bls.n	8001672 <HAL_RCC_OscConfig+0x2a6>
 80016c2:	e6c5      	b.n	8001450 <HAL_RCC_OscConfig+0x84>
 80016c4:	f7fe ff5a 	bl	800057c <HAL_GetTick>
 80016c8:	4605      	mov	r5, r0
 80016ca:	6823      	ldr	r3, [r4, #0]
 80016cc:	019b      	lsls	r3, r3, #6
 80016ce:	f57f ae95 	bpl.w	80013fc <HAL_RCC_OscConfig+0x30>
 80016d2:	f7fe ff53 	bl	800057c <HAL_GetTick>
 80016d6:	1b40      	subs	r0, r0, r5
 80016d8:	2802      	cmp	r0, #2
 80016da:	d9f6      	bls.n	80016ca <HAL_RCC_OscConfig+0x2fe>
 80016dc:	e6b8      	b.n	8001450 <HAL_RCC_OscConfig+0x84>
 80016de:	2801      	cmp	r0, #1
 80016e0:	f43f aeb7 	beq.w	8001452 <HAL_RCC_OscConfig+0x86>
 80016e4:	6858      	ldr	r0, [r3, #4]
 80016e6:	6a2b      	ldr	r3, [r5, #32]
 80016e8:	f400 3280 	and.w	r2, r0, #65536	; 0x10000
 80016ec:	429a      	cmp	r2, r3
 80016ee:	f47f ae71 	bne.w	80013d4 <HAL_RCC_OscConfig+0x8>
 80016f2:	6a6b      	ldr	r3, [r5, #36]	; 0x24
 80016f4:	f400 1070 	and.w	r0, r0, #3932160	; 0x3c0000
 80016f8:	1ac0      	subs	r0, r0, r3
 80016fa:	bf18      	it	ne
 80016fc:	2001      	movne	r0, #1
 80016fe:	e6a8      	b.n	8001452 <HAL_RCC_OscConfig+0x86>
 8001700:	40021000 	.word	0x40021000
 8001704:	42420060 	.word	0x42420060

08001708 <HAL_RCC_GetSysClockFreq>:
 8001708:	b530      	push	{r4, r5, lr}
 800170a:	4b18      	ldr	r3, [pc, #96]	; (800176c <HAL_RCC_GetSysClockFreq+0x64>)
 800170c:	b087      	sub	sp, #28
 800170e:	ac02      	add	r4, sp, #8
 8001710:	f103 0510 	add.w	r5, r3, #16
 8001714:	4622      	mov	r2, r4
 8001716:	6818      	ldr	r0, [r3, #0]
 8001718:	6859      	ldr	r1, [r3, #4]
 800171a:	3308      	adds	r3, #8
 800171c:	c203      	stmia	r2!, {r0, r1}
 800171e:	42ab      	cmp	r3, r5
 8001720:	4614      	mov	r4, r2
 8001722:	d1f7      	bne.n	8001714 <HAL_RCC_GetSysClockFreq+0xc>
 8001724:	f240 2301 	movw	r3, #513	; 0x201
 8001728:	4911      	ldr	r1, [pc, #68]	; (8001770 <HAL_RCC_GetSysClockFreq+0x68>)
 800172a:	f8ad 3004 	strh.w	r3, [sp, #4]
 800172e:	684b      	ldr	r3, [r1, #4]
 8001730:	f003 020c 	and.w	r2, r3, #12
 8001734:	2a08      	cmp	r2, #8
 8001736:	d117      	bne.n	8001768 <HAL_RCC_GetSysClockFreq+0x60>
 8001738:	f3c3 4283 	ubfx	r2, r3, #18, #4
 800173c:	a806      	add	r0, sp, #24
 800173e:	4402      	add	r2, r0
 8001740:	03db      	lsls	r3, r3, #15
 8001742:	f812 2c10 	ldrb.w	r2, [r2, #-16]
 8001746:	d50c      	bpl.n	8001762 <HAL_RCC_GetSysClockFreq+0x5a>
 8001748:	684b      	ldr	r3, [r1, #4]
 800174a:	480a      	ldr	r0, [pc, #40]	; (8001774 <HAL_RCC_GetSysClockFreq+0x6c>)
 800174c:	f3c3 4340 	ubfx	r3, r3, #17, #1
 8001750:	4350      	muls	r0, r2
 8001752:	aa06      	add	r2, sp, #24
 8001754:	4413      	add	r3, r2
 8001756:	f813 3c14 	ldrb.w	r3, [r3, #-20]
 800175a:	fbb0 f0f3 	udiv	r0, r0, r3
 800175e:	b007      	add	sp, #28
 8001760:	bd30      	pop	{r4, r5, pc}
 8001762:	4805      	ldr	r0, [pc, #20]	; (8001778 <HAL_RCC_GetSysClockFreq+0x70>)
 8001764:	4350      	muls	r0, r2
 8001766:	e7fa      	b.n	800175e <HAL_RCC_GetSysClockFreq+0x56>
 8001768:	4802      	ldr	r0, [pc, #8]	; (8001774 <HAL_RCC_GetSysClockFreq+0x6c>)
 800176a:	e7f8      	b.n	800175e <HAL_RCC_GetSysClockFreq+0x56>
 800176c:	080054e0 	.word	0x080054e0
 8001770:	40021000 	.word	0x40021000
 8001774:	007a1200 	.word	0x007a1200
 8001778:	003d0900 	.word	0x003d0900

0800177c <HAL_RCC_ClockConfig>:
 800177c:	e92d 41f0 	stmdb	sp!, {r4, r5, r6, r7, r8, lr}
 8001780:	460d      	mov	r5, r1
 8001782:	4604      	mov	r4, r0
 8001784:	b910      	cbnz	r0, 800178c <HAL_RCC_ClockConfig+0x10>
 8001786:	2001      	movs	r0, #1
 8001788:	e8bd 81f0 	ldmia.w	sp!, {r4, r5, r6, r7, r8, pc}
 800178c:	4a44      	ldr	r2, [pc, #272]	; (80018a0 <HAL_RCC_ClockConfig+0x124>)
 800178e:	6813      	ldr	r3, [r2, #0]
 8001790:	f003 0307 	and.w	r3, r3, #7
 8001794:	428b      	cmp	r3, r1
 8001796:	d328      	bcc.n	80017ea <HAL_RCC_ClockConfig+0x6e>
 8001798:	6821      	ldr	r1, [r4, #0]
 800179a:	078e      	lsls	r6, r1, #30
 800179c:	d430      	bmi.n	8001800 <HAL_RCC_ClockConfig+0x84>
 800179e:	07ca      	lsls	r2, r1, #31
 80017a0:	d443      	bmi.n	800182a <HAL_RCC_ClockConfig+0xae>
 80017a2:	4a3f      	ldr	r2, [pc, #252]	; (80018a0 <HAL_RCC_ClockConfig+0x124>)
 80017a4:	6813      	ldr	r3, [r2, #0]
 80017a6:	f003 0307 	and.w	r3, r3, #7
 80017aa:	42ab      	cmp	r3, r5
 80017ac:	d865      	bhi.n	800187a <HAL_RCC_ClockConfig+0xfe>
 80017ae:	6822      	ldr	r2, [r4, #0]
 80017b0:	4d3c      	ldr	r5, [pc, #240]	; (80018a4 <HAL_RCC_ClockConfig+0x128>)
 80017b2:	f012 0f04 	tst.w	r2, #4
 80017b6:	d16c      	bne.n	8001892 <HAL_RCC_ClockConfig+0x116>
 80017b8:	0713      	lsls	r3, r2, #28
 80017ba:	d506      	bpl.n	80017ca <HAL_RCC_ClockConfig+0x4e>
 80017bc:	686b      	ldr	r3, [r5, #4]
 80017be:	6922      	ldr	r2, [r4, #16]
 80017c0:	f423 5360 	bic.w	r3, r3, #14336	; 0x3800
 80017c4:	ea43 03c2 	orr.w	r3, r3, r2, lsl #3
 80017c8:	606b      	str	r3, [r5, #4]
 80017ca:	f7ff ff9d 	bl	8001708 <HAL_RCC_GetSysClockFreq>
 80017ce:	686b      	ldr	r3, [r5, #4]
 80017d0:	4a35      	ldr	r2, [pc, #212]	; (80018a8 <HAL_RCC_ClockConfig+0x12c>)
 80017d2:	f3c3 1303 	ubfx	r3, r3, #4, #4
 80017d6:	5cd3      	ldrb	r3, [r2, r3]
 80017d8:	40d8      	lsrs	r0, r3
 80017da:	4b34      	ldr	r3, [pc, #208]	; (80018ac <HAL_RCC_ClockConfig+0x130>)
 80017dc:	6018      	str	r0, [r3, #0]
 80017de:	4b34      	ldr	r3, [pc, #208]	; (80018b0 <HAL_RCC_ClockConfig+0x134>)
 80017e0:	6818      	ldr	r0, [r3, #0]
 80017e2:	f7fe fe37 	bl	8000454 <HAL_InitTick>
 80017e6:	2000      	movs	r0, #0
 80017e8:	e7ce      	b.n	8001788 <HAL_RCC_ClockConfig+0xc>
 80017ea:	6813      	ldr	r3, [r2, #0]
 80017ec:	f023 0307 	bic.w	r3, r3, #7
 80017f0:	430b      	orrs	r3, r1
 80017f2:	6013      	str	r3, [r2, #0]
 80017f4:	6813      	ldr	r3, [r2, #0]
 80017f6:	f003 0307 	and.w	r3, r3, #7
 80017fa:	428b      	cmp	r3, r1
 80017fc:	d1c3      	bne.n	8001786 <HAL_RCC_ClockConfig+0xa>
 80017fe:	e7cb      	b.n	8001798 <HAL_RCC_ClockConfig+0x1c>
 8001800:	4b28      	ldr	r3, [pc, #160]	; (80018a4 <HAL_RCC_ClockConfig+0x128>)
 8001802:	f011 0f04 	tst.w	r1, #4
 8001806:	bf1e      	ittt	ne
 8001808:	685a      	ldrne	r2, [r3, #4]
 800180a:	f442 62e0 	orrne.w	r2, r2, #1792	; 0x700
 800180e:	605a      	strne	r2, [r3, #4]
 8001810:	0708      	lsls	r0, r1, #28
 8001812:	bf42      	ittt	mi
 8001814:	685a      	ldrmi	r2, [r3, #4]
 8001816:	f442 5260 	orrmi.w	r2, r2, #14336	; 0x3800
 800181a:	605a      	strmi	r2, [r3, #4]
 800181c:	685a      	ldr	r2, [r3, #4]
 800181e:	68a0      	ldr	r0, [r4, #8]
 8001820:	f022 02f0 	bic.w	r2, r2, #240	; 0xf0
 8001824:	4302      	orrs	r2, r0
 8001826:	605a      	str	r2, [r3, #4]
 8001828:	e7b9      	b.n	800179e <HAL_RCC_ClockConfig+0x22>
 800182a:	6862      	ldr	r2, [r4, #4]
 800182c:	4e1d      	ldr	r6, [pc, #116]	; (80018a4 <HAL_RCC_ClockConfig+0x128>)
 800182e:	2a01      	cmp	r2, #1
 8001830:	6833      	ldr	r3, [r6, #0]
 8001832:	d11a      	bne.n	800186a <HAL_RCC_ClockConfig+0xee>
 8001834:	f413 3f00 	tst.w	r3, #131072	; 0x20000
 8001838:	d0a5      	beq.n	8001786 <HAL_RCC_ClockConfig+0xa>
 800183a:	6873      	ldr	r3, [r6, #4]
 800183c:	f241 3888 	movw	r8, #5000	; 0x1388
 8001840:	f023 0303 	bic.w	r3, r3, #3
 8001844:	4313      	orrs	r3, r2
 8001846:	6073      	str	r3, [r6, #4]
 8001848:	f7fe fe98 	bl	800057c <HAL_GetTick>
 800184c:	4607      	mov	r7, r0
 800184e:	6873      	ldr	r3, [r6, #4]
 8001850:	6862      	ldr	r2, [r4, #4]
 8001852:	f003 030c 	and.w	r3, r3, #12
 8001856:	ebb3 0f82 	cmp.w	r3, r2, lsl #2
 800185a:	d0a2      	beq.n	80017a2 <HAL_RCC_ClockConfig+0x26>
 800185c:	f7fe fe8e 	bl	800057c <HAL_GetTick>
 8001860:	1bc0      	subs	r0, r0, r7
 8001862:	4540      	cmp	r0, r8
 8001864:	d9f3      	bls.n	800184e <HAL_RCC_ClockConfig+0xd2>
 8001866:	2003      	movs	r0, #3
 8001868:	e78e      	b.n	8001788 <HAL_RCC_ClockConfig+0xc>
 800186a:	2a02      	cmp	r2, #2
 800186c:	d102      	bne.n	8001874 <HAL_RCC_ClockConfig+0xf8>
 800186e:	f013 7f00 	tst.w	r3, #33554432	; 0x2000000
 8001872:	e7e1      	b.n	8001838 <HAL_RCC_ClockConfig+0xbc>
 8001874:	f013 0f02 	tst.w	r3, #2
 8001878:	e7de      	b.n	8001838 <HAL_RCC_ClockConfig+0xbc>
 800187a:	6813      	ldr	r3, [r2, #0]
 800187c:	f023 0307 	bic.w	r3, r3, #7
 8001880:	432b      	orrs	r3, r5
 8001882:	6013      	str	r3, [r2, #0]
 8001884:	6813      	ldr	r3, [r2, #0]
 8001886:	f003 0307 	and.w	r3, r3, #7
 800188a:	42ab      	cmp	r3, r5
 800188c:	f47f af7b 	bne.w	8001786 <HAL_RCC_ClockConfig+0xa>
 8001890:	e78d      	b.n	80017ae <HAL_RCC_ClockConfig+0x32>
 8001892:	686b      	ldr	r3, [r5, #4]
 8001894:	68e1      	ldr	r1, [r4, #12]
 8001896:	f423 63e0 	bic.w	r3, r3, #1792	; 0x700
 800189a:	430b      	orrs	r3, r1
 800189c:	606b      	str	r3, [r5, #4]
 800189e:	e78b      	b.n	80017b8 <HAL_RCC_ClockConfig+0x3c>
 80018a0:	40022000 	.word	0x40022000
 80018a4:	40021000 	.word	0x40021000
 80018a8:	08005500 	.word	0x08005500
 80018ac:	20000000 	.word	0x20000000
 80018b0:	20000008 	.word	0x20000008

080018b4 <HAL_RCC_GetPCLK1Freq>:
 80018b4:	4b04      	ldr	r3, [pc, #16]	; (80018c8 <HAL_RCC_GetPCLK1Freq+0x14>)
 80018b6:	4a05      	ldr	r2, [pc, #20]	; (80018cc <HAL_RCC_GetPCLK1Freq+0x18>)
 80018b8:	685b      	ldr	r3, [r3, #4]
 80018ba:	f3c3 2302 	ubfx	r3, r3, #8, #3
 80018be:	5cd3      	ldrb	r3, [r2, r3]
 80018c0:	4a03      	ldr	r2, [pc, #12]	; (80018d0 <HAL_RCC_GetPCLK1Freq+0x1c>)
 80018c2:	6810      	ldr	r0, [r2, #0]
 80018c4:	40d8      	lsrs	r0, r3
 80018c6:	4770      	bx	lr
 80018c8:	40021000 	.word	0x40021000
 80018cc:	08005510 	.word	0x08005510
 80018d0:	20000000 	.word	0x20000000

080018d4 <HAL_RCC_GetClockConfig>:
 80018d4:	230f      	movs	r3, #15
 80018d6:	6003      	str	r3, [r0, #0]
 80018d8:	4b0b      	ldr	r3, [pc, #44]	; (8001908 <HAL_RCC_GetClockConfig+0x34>)
 80018da:	685a      	ldr	r2, [r3, #4]
 80018dc:	f002 0203 	and.w	r2, r2, #3
 80018e0:	6042      	str	r2, [r0, #4]
 80018e2:	685a      	ldr	r2, [r3, #4]
 80018e4:	f002 02f0 	and.w	r2, r2, #240	; 0xf0
 80018e8:	6082      	str	r2, [r0, #8]
 80018ea:	685a      	ldr	r2, [r3, #4]
 80018ec:	f402 62e0 	and.w	r2, r2, #1792	; 0x700
 80018f0:	60c2      	str	r2, [r0, #12]
 80018f2:	685b      	ldr	r3, [r3, #4]
 80018f4:	08db      	lsrs	r3, r3, #3
 80018f6:	f403 63e0 	and.w	r3, r3, #1792	; 0x700
 80018fa:	6103      	str	r3, [r0, #16]
 80018fc:	4b03      	ldr	r3, [pc, #12]	; (800190c <HAL_RCC_GetClockConfig+0x38>)
 80018fe:	681b      	ldr	r3, [r3, #0]
 8001900:	f003 0307 	and.w	r3, r3, #7
 8001904:	600b      	str	r3, [r1, #0]
 8001906:	4770      	bx	lr
 8001908:	40021000 	.word	0x40021000
 800190c:	40022000 	.word	0x40022000

08001910 <HAL_RCCEx_PeriphCLKConfig>:
 8001910:	6803      	ldr	r3, [r0, #0]
 8001912:	e92d 41f3 	stmdb	sp!, {r0, r1, r4, r5, r6, r7, r8, lr}
 8001916:	07d9      	lsls	r1, r3, #31
 8001918:	4605      	mov	r5, r0
 800191a:	d520      	bpl.n	800195e <HAL_RCCEx_PeriphCLKConfig+0x4e>
 800191c:	4c35      	ldr	r4, [pc, #212]	; (80019f4 <HAL_RCCEx_PeriphCLKConfig+0xe4>)
 800191e:	69e3      	ldr	r3, [r4, #28]
 8001920:	00da      	lsls	r2, r3, #3
 8001922:	d432      	bmi.n	800198a <HAL_RCCEx_PeriphCLKConfig+0x7a>
 8001924:	2701      	movs	r7, #1
 8001926:	69e3      	ldr	r3, [r4, #28]
 8001928:	f043 5380 	orr.w	r3, r3, #268435456	; 0x10000000
 800192c:	61e3      	str	r3, [r4, #28]
 800192e:	69e3      	ldr	r3, [r4, #28]
 8001930:	f003 5380 	and.w	r3, r3, #268435456	; 0x10000000
 8001934:	9301      	str	r3, [sp, #4]
 8001936:	9b01      	ldr	r3, [sp, #4]
 8001938:	4e2f      	ldr	r6, [pc, #188]	; (80019f8 <HAL_RCCEx_PeriphCLKConfig+0xe8>)
 800193a:	6833      	ldr	r3, [r6, #0]
 800193c:	05db      	lsls	r3, r3, #23
 800193e:	d526      	bpl.n	800198e <HAL_RCCEx_PeriphCLKConfig+0x7e>
 8001940:	6a23      	ldr	r3, [r4, #32]
 8001942:	f413 7340 	ands.w	r3, r3, #768	; 0x300
 8001946:	d136      	bne.n	80019b6 <HAL_RCCEx_PeriphCLKConfig+0xa6>
 8001948:	6a23      	ldr	r3, [r4, #32]
 800194a:	686a      	ldr	r2, [r5, #4]
 800194c:	f423 7340 	bic.w	r3, r3, #768	; 0x300
 8001950:	4313      	orrs	r3, r2
 8001952:	6223      	str	r3, [r4, #32]
 8001954:	b11f      	cbz	r7, 800195e <HAL_RCCEx_PeriphCLKConfig+0x4e>
 8001956:	69e3      	ldr	r3, [r4, #28]
 8001958:	f023 5380 	bic.w	r3, r3, #268435456	; 0x10000000
 800195c:	61e3      	str	r3, [r4, #28]
 800195e:	6828      	ldr	r0, [r5, #0]
 8001960:	0783      	lsls	r3, r0, #30
 8001962:	d506      	bpl.n	8001972 <HAL_RCCEx_PeriphCLKConfig+0x62>
 8001964:	4a23      	ldr	r2, [pc, #140]	; (80019f4 <HAL_RCCEx_PeriphCLKConfig+0xe4>)
 8001966:	68a9      	ldr	r1, [r5, #8]
 8001968:	6853      	ldr	r3, [r2, #4]
 800196a:	f423 4340 	bic.w	r3, r3, #49152	; 0xc000
 800196e:	430b      	orrs	r3, r1
 8001970:	6053      	str	r3, [r2, #4]
 8001972:	f010 0010 	ands.w	r0, r0, #16
 8001976:	d01b      	beq.n	80019b0 <HAL_RCCEx_PeriphCLKConfig+0xa0>
 8001978:	4a1e      	ldr	r2, [pc, #120]	; (80019f4 <HAL_RCCEx_PeriphCLKConfig+0xe4>)
 800197a:	68e9      	ldr	r1, [r5, #12]
 800197c:	6853      	ldr	r3, [r2, #4]
 800197e:	2000      	movs	r0, #0
 8001980:	f423 0380 	bic.w	r3, r3, #4194304	; 0x400000
 8001984:	430b      	orrs	r3, r1
 8001986:	6053      	str	r3, [r2, #4]
 8001988:	e012      	b.n	80019b0 <HAL_RCCEx_PeriphCLKConfig+0xa0>
 800198a:	2700      	movs	r7, #0
 800198c:	e7d4      	b.n	8001938 <HAL_RCCEx_PeriphCLKConfig+0x28>
 800198e:	6833      	ldr	r3, [r6, #0]
 8001990:	f443 7380 	orr.w	r3, r3, #256	; 0x100
 8001994:	6033      	str	r3, [r6, #0]
 8001996:	f7fe fdf1 	bl	800057c <HAL_GetTick>
 800199a:	4680      	mov	r8, r0
 800199c:	6833      	ldr	r3, [r6, #0]
 800199e:	05d8      	lsls	r0, r3, #23
 80019a0:	d4ce      	bmi.n	8001940 <HAL_RCCEx_PeriphCLKConfig+0x30>
 80019a2:	f7fe fdeb 	bl	800057c <HAL_GetTick>
 80019a6:	eba0 0008 	sub.w	r0, r0, r8
 80019aa:	2864      	cmp	r0, #100	; 0x64
 80019ac:	d9f6      	bls.n	800199c <HAL_RCCEx_PeriphCLKConfig+0x8c>
 80019ae:	2003      	movs	r0, #3
 80019b0:	b002      	add	sp, #8
 80019b2:	e8bd 81f0 	ldmia.w	sp!, {r4, r5, r6, r7, r8, pc}
 80019b6:	686a      	ldr	r2, [r5, #4]
 80019b8:	f402 7240 	and.w	r2, r2, #768	; 0x300
 80019bc:	429a      	cmp	r2, r3
 80019be:	d0c3      	beq.n	8001948 <HAL_RCCEx_PeriphCLKConfig+0x38>
 80019c0:	2001      	movs	r0, #1
 80019c2:	4a0e      	ldr	r2, [pc, #56]	; (80019fc <HAL_RCCEx_PeriphCLKConfig+0xec>)
 80019c4:	6a23      	ldr	r3, [r4, #32]
 80019c6:	6010      	str	r0, [r2, #0]
 80019c8:	2000      	movs	r0, #0
 80019ca:	f423 7140 	bic.w	r1, r3, #768	; 0x300
 80019ce:	6010      	str	r0, [r2, #0]
 80019d0:	6221      	str	r1, [r4, #32]
 80019d2:	07d9      	lsls	r1, r3, #31
 80019d4:	d5b8      	bpl.n	8001948 <HAL_RCCEx_PeriphCLKConfig+0x38>
 80019d6:	f7fe fdd1 	bl	800057c <HAL_GetTick>
 80019da:	f241 3888 	movw	r8, #5000	; 0x1388
 80019de:	4606      	mov	r6, r0
 80019e0:	6a23      	ldr	r3, [r4, #32]
 80019e2:	079a      	lsls	r2, r3, #30
 80019e4:	d4b0      	bmi.n	8001948 <HAL_RCCEx_PeriphCLKConfig+0x38>
 80019e6:	f7fe fdc9 	bl	800057c <HAL_GetTick>
 80019ea:	1b80      	subs	r0, r0, r6
 80019ec:	4540      	cmp	r0, r8
 80019ee:	d9f7      	bls.n	80019e0 <HAL_RCCEx_PeriphCLKConfig+0xd0>
 80019f0:	e7dd      	b.n	80019ae <HAL_RCCEx_PeriphCLKConfig+0x9e>
 80019f2:	bf00      	nop
 80019f4:	40021000 	.word	0x40021000
 80019f8:	40007000 	.word	0x40007000
 80019fc:	42420440 	.word	0x42420440

08001a00 <HAL_TIM_Base_Start>:
 8001a00:	f890 303d 	ldrb.w	r3, [r0, #61]	; 0x3d
 8001a04:	2b01      	cmp	r3, #1
 8001a06:	d11c      	bne.n	8001a42 <HAL_TIM_Base_Start+0x42>
 8001a08:	2302      	movs	r3, #2
 8001a0a:	4a0f      	ldr	r2, [pc, #60]	; (8001a48 <HAL_TIM_Base_Start+0x48>)
 8001a0c:	f880 303d 	strb.w	r3, [r0, #61]	; 0x3d
 8001a10:	6803      	ldr	r3, [r0, #0]
 8001a12:	4293      	cmp	r3, r2
 8001a14:	d00a      	beq.n	8001a2c <HAL_TIM_Base_Start+0x2c>
 8001a16:	f1b3 4f80 	cmp.w	r3, #1073741824	; 0x40000000
 8001a1a:	d007      	beq.n	8001a2c <HAL_TIM_Base_Start+0x2c>
 8001a1c:	f5a2 3294 	sub.w	r2, r2, #75776	; 0x12800
 8001a20:	4293      	cmp	r3, r2
 8001a22:	d003      	beq.n	8001a2c <HAL_TIM_Base_Start+0x2c>
 8001a24:	f502 6280 	add.w	r2, r2, #1024	; 0x400
 8001a28:	4293      	cmp	r3, r2
 8001a2a:	d104      	bne.n	8001a36 <HAL_TIM_Base_Start+0x36>
 8001a2c:	689a      	ldr	r2, [r3, #8]
 8001a2e:	f002 0207 	and.w	r2, r2, #7
 8001a32:	2a06      	cmp	r2, #6
 8001a34:	d003      	beq.n	8001a3e <HAL_TIM_Base_Start+0x3e>
 8001a36:	681a      	ldr	r2, [r3, #0]
 8001a38:	f042 0201 	orr.w	r2, r2, #1
 8001a3c:	601a      	str	r2, [r3, #0]
 8001a3e:	2000      	movs	r0, #0
 8001a40:	4770      	bx	lr
 8001a42:	2001      	movs	r0, #1
 8001a44:	4770      	bx	lr
 8001a46:	bf00      	nop
 8001a48:	40012c00 	.word	0x40012c00

08001a4c <HAL_TIM_Base_Start_IT>:
 8001a4c:	f890 303d 	ldrb.w	r3, [r0, #61]	; 0x3d
 8001a50:	2b01      	cmp	r3, #1
 8001a52:	d120      	bne.n	8001a96 <HAL_TIM_Base_Start_IT+0x4a>
 8001a54:	2302      	movs	r3, #2
 8001a56:	f880 303d 	strb.w	r3, [r0, #61]	; 0x3d
 8001a5a:	6803      	ldr	r3, [r0, #0]
 8001a5c:	68da      	ldr	r2, [r3, #12]
 8001a5e:	f042 0201 	orr.w	r2, r2, #1
 8001a62:	60da      	str	r2, [r3, #12]
 8001a64:	4a0d      	ldr	r2, [pc, #52]	; (8001a9c <HAL_TIM_Base_Start_IT+0x50>)
 8001a66:	4293      	cmp	r3, r2
 8001a68:	d00a      	beq.n	8001a80 <HAL_TIM_Base_Start_IT+0x34>
 8001a6a:	f1b3 4f80 	cmp.w	r3, #1073741824	; 0x40000000
 8001a6e:	d007      	beq.n	8001a80 <HAL_TIM_Base_Start_IT+0x34>
 8001a70:	f5a2 3294 	sub.w	r2, r2, #75776	; 0x12800
 8001a74:	4293      	cmp	r3, r2
 8001a76:	d003      	beq.n	8001a80 <HAL_TIM_Base_Start_IT+0x34>
 8001a78:	f502 6280 	add.w	r2, r2, #1024	; 0x400
 8001a7c:	4293      	cmp	r3, r2
 8001a7e:	d104      	bne.n	8001a8a <HAL_TIM_Base_Start_IT+0x3e>
 8001a80:	689a      	ldr	r2, [r3, #8]
 8001a82:	f002 0207 	and.w	r2, r2, #7
 8001a86:	2a06      	cmp	r2, #6
 8001a88:	d003      	beq.n	8001a92 <HAL_TIM_Base_Start_IT+0x46>
 8001a8a:	681a      	ldr	r2, [r3, #0]
 8001a8c:	f042 0201 	orr.w	r2, r2, #1
 8001a90:	601a      	str	r2, [r3, #0]
 8001a92:	2000      	movs	r0, #0
 8001a94:	4770      	bx	lr
 8001a96:	2001      	movs	r0, #1
 8001a98:	4770      	bx	lr
 8001a9a:	bf00      	nop
 8001a9c:	40012c00 	.word	0x40012c00

08001aa0 <HAL_TIM_OC_DelayElapsedCallback>:
 8001aa0:	4770      	bx	lr

08001aa2 <HAL_TIM_IC_CaptureCallback>:
 8001aa2:	4770      	bx	lr

08001aa4 <HAL_TIM_PWM_PulseFinishedCallback>:
 8001aa4:	4770      	bx	lr

08001aa6 <HAL_TIM_TriggerCallback>:
 8001aa6:	4770      	bx	lr

08001aa8 <HAL_TIM_IRQHandler>:
 8001aa8:	6803      	ldr	r3, [r0, #0]
 8001aaa:	b510      	push	{r4, lr}
 8001aac:	691a      	ldr	r2, [r3, #16]
 8001aae:	4604      	mov	r4, r0
 8001ab0:	0791      	lsls	r1, r2, #30
 8001ab2:	d50e      	bpl.n	8001ad2 <HAL_TIM_IRQHandler+0x2a>
 8001ab4:	68da      	ldr	r2, [r3, #12]
 8001ab6:	0792      	lsls	r2, r2, #30
 8001ab8:	d50b      	bpl.n	8001ad2 <HAL_TIM_IRQHandler+0x2a>
 8001aba:	f06f 0202 	mvn.w	r2, #2
 8001abe:	611a      	str	r2, [r3, #16]
 8001ac0:	2201      	movs	r2, #1
 8001ac2:	699b      	ldr	r3, [r3, #24]
 8001ac4:	7702      	strb	r2, [r0, #28]
 8001ac6:	079b      	lsls	r3, r3, #30
 8001ac8:	d077      	beq.n	8001bba <HAL_TIM_IRQHandler+0x112>
 8001aca:	f7ff ffea 	bl	8001aa2 <HAL_TIM_IC_CaptureCallback>
 8001ace:	2300      	movs	r3, #0
 8001ad0:	7723      	strb	r3, [r4, #28]
 8001ad2:	6823      	ldr	r3, [r4, #0]
 8001ad4:	691a      	ldr	r2, [r3, #16]
 8001ad6:	0750      	lsls	r0, r2, #29
 8001ad8:	d510      	bpl.n	8001afc <HAL_TIM_IRQHandler+0x54>
 8001ada:	68da      	ldr	r2, [r3, #12]
 8001adc:	0751      	lsls	r1, r2, #29
 8001ade:	d50d      	bpl.n	8001afc <HAL_TIM_IRQHandler+0x54>
 8001ae0:	f06f 0204 	mvn.w	r2, #4
 8001ae4:	611a      	str	r2, [r3, #16]
 8001ae6:	2202      	movs	r2, #2
 8001ae8:	699b      	ldr	r3, [r3, #24]
 8001aea:	7722      	strb	r2, [r4, #28]
 8001aec:	f413 7f40 	tst.w	r3, #768	; 0x300
 8001af0:	4620      	mov	r0, r4
 8001af2:	d068      	beq.n	8001bc6 <HAL_TIM_IRQHandler+0x11e>
 8001af4:	f7ff ffd5 	bl	8001aa2 <HAL_TIM_IC_CaptureCallback>
 8001af8:	2300      	movs	r3, #0
 8001afa:	7723      	strb	r3, [r4, #28]
 8001afc:	6823      	ldr	r3, [r4, #0]
 8001afe:	691a      	ldr	r2, [r3, #16]
 8001b00:	0712      	lsls	r2, r2, #28
 8001b02:	d50f      	bpl.n	8001b24 <HAL_TIM_IRQHandler+0x7c>
 8001b04:	68da      	ldr	r2, [r3, #12]
 8001b06:	0710      	lsls	r0, r2, #28
 8001b08:	d50c      	bpl.n	8001b24 <HAL_TIM_IRQHandler+0x7c>
 8001b0a:	f06f 0208 	mvn.w	r2, #8
 8001b0e:	611a      	str	r2, [r3, #16]
 8001b10:	2204      	movs	r2, #4
 8001b12:	69db      	ldr	r3, [r3, #28]
 8001b14:	7722      	strb	r2, [r4, #28]
 8001b16:	0799      	lsls	r1, r3, #30
 8001b18:	4620      	mov	r0, r4
 8001b1a:	d05a      	beq.n	8001bd2 <HAL_TIM_IRQHandler+0x12a>
 8001b1c:	f7ff ffc1 	bl	8001aa2 <HAL_TIM_IC_CaptureCallback>
 8001b20:	2300      	movs	r3, #0
 8001b22:	7723      	strb	r3, [r4, #28]
 8001b24:	6823      	ldr	r3, [r4, #0]
 8001b26:	691a      	ldr	r2, [r3, #16]
 8001b28:	06d2      	lsls	r2, r2, #27
 8001b2a:	d510      	bpl.n	8001b4e <HAL_TIM_IRQHandler+0xa6>
 8001b2c:	68da      	ldr	r2, [r3, #12]
 8001b2e:	06d0      	lsls	r0, r2, #27
 8001b30:	d50d      	bpl.n	8001b4e <HAL_TIM_IRQHandler+0xa6>
 8001b32:	f06f 0210 	mvn.w	r2, #16
 8001b36:	611a      	str	r2, [r3, #16]
 8001b38:	2208      	movs	r2, #8
 8001b3a:	69db      	ldr	r3, [r3, #28]
 8001b3c:	7722      	strb	r2, [r4, #28]
 8001b3e:	f413 7f40 	tst.w	r3, #768	; 0x300
 8001b42:	4620      	mov	r0, r4
 8001b44:	d04b      	beq.n	8001bde <HAL_TIM_IRQHandler+0x136>
 8001b46:	f7ff ffac 	bl	8001aa2 <HAL_TIM_IC_CaptureCallback>
 8001b4a:	2300      	movs	r3, #0
 8001b4c:	7723      	strb	r3, [r4, #28]
 8001b4e:	6823      	ldr	r3, [r4, #0]
 8001b50:	691a      	ldr	r2, [r3, #16]
 8001b52:	07d1      	lsls	r1, r2, #31
 8001b54:	d508      	bpl.n	8001b68 <HAL_TIM_IRQHandler+0xc0>
 8001b56:	68da      	ldr	r2, [r3, #12]
 8001b58:	07d2      	lsls	r2, r2, #31
 8001b5a:	d505      	bpl.n	8001b68 <HAL_TIM_IRQHandler+0xc0>
 8001b5c:	f06f 0201 	mvn.w	r2, #1
 8001b60:	4620      	mov	r0, r4
 8001b62:	611a      	str	r2, [r3, #16]
 8001b64:	f7fe fc2e 	bl	80003c4 <HAL_TIM_PeriodElapsedCallback>
 8001b68:	6823      	ldr	r3, [r4, #0]
 8001b6a:	691a      	ldr	r2, [r3, #16]
 8001b6c:	0610      	lsls	r0, r2, #24
 8001b6e:	d508      	bpl.n	8001b82 <HAL_TIM_IRQHandler+0xda>
 8001b70:	68da      	ldr	r2, [r3, #12]
 8001b72:	0611      	lsls	r1, r2, #24
 8001b74:	d505      	bpl.n	8001b82 <HAL_TIM_IRQHandler+0xda>
 8001b76:	f06f 0280 	mvn.w	r2, #128	; 0x80
 8001b7a:	4620      	mov	r0, r4
 8001b7c:	611a      	str	r2, [r3, #16]
 8001b7e:	f000 f96a 	bl	8001e56 <HAL_TIMEx_BreakCallback>
 8001b82:	6823      	ldr	r3, [r4, #0]
 8001b84:	691a      	ldr	r2, [r3, #16]
 8001b86:	0652      	lsls	r2, r2, #25
 8001b88:	d508      	bpl.n	8001b9c <HAL_TIM_IRQHandler+0xf4>
 8001b8a:	68da      	ldr	r2, [r3, #12]
 8001b8c:	0650      	lsls	r0, r2, #25
 8001b8e:	d505      	bpl.n	8001b9c <HAL_TIM_IRQHandler+0xf4>
 8001b90:	f06f 0240 	mvn.w	r2, #64	; 0x40
 8001b94:	4620      	mov	r0, r4
 8001b96:	611a      	str	r2, [r3, #16]
 8001b98:	f7ff ff85 	bl	8001aa6 <HAL_TIM_TriggerCallback>
 8001b9c:	6823      	ldr	r3, [r4, #0]
 8001b9e:	691a      	ldr	r2, [r3, #16]
 8001ba0:	0691      	lsls	r1, r2, #26
 8001ba2:	d522      	bpl.n	8001bea <HAL_TIM_IRQHandler+0x142>
 8001ba4:	68da      	ldr	r2, [r3, #12]
 8001ba6:	0692      	lsls	r2, r2, #26
 8001ba8:	d51f      	bpl.n	8001bea <HAL_TIM_IRQHandler+0x142>
 8001baa:	f06f 0220 	mvn.w	r2, #32
 8001bae:	4620      	mov	r0, r4
 8001bb0:	e8bd 4010 	ldmia.w	sp!, {r4, lr}
 8001bb4:	611a      	str	r2, [r3, #16]
 8001bb6:	f000 b94d 	b.w	8001e54 <HAL_TIMEx_CommutCallback>
 8001bba:	f7ff ff71 	bl	8001aa0 <HAL_TIM_OC_DelayElapsedCallback>
 8001bbe:	4620      	mov	r0, r4
 8001bc0:	f7ff ff70 	bl	8001aa4 <HAL_TIM_PWM_PulseFinishedCallback>
 8001bc4:	e783      	b.n	8001ace <HAL_TIM_IRQHandler+0x26>
 8001bc6:	f7ff ff6b 	bl	8001aa0 <HAL_TIM_OC_DelayElapsedCallback>
 8001bca:	4620      	mov	r0, r4
 8001bcc:	f7ff ff6a 	bl	8001aa4 <HAL_TIM_PWM_PulseFinishedCallback>
 8001bd0:	e792      	b.n	8001af8 <HAL_TIM_IRQHandler+0x50>
 8001bd2:	f7ff ff65 	bl	8001aa0 <HAL_TIM_OC_DelayElapsedCallback>
 8001bd6:	4620      	mov	r0, r4
 8001bd8:	f7ff ff64 	bl	8001aa4 <HAL_TIM_PWM_PulseFinishedCallback>
 8001bdc:	e7a0      	b.n	8001b20 <HAL_TIM_IRQHandler+0x78>
 8001bde:	f7ff ff5f 	bl	8001aa0 <HAL_TIM_OC_DelayElapsedCallback>
 8001be2:	4620      	mov	r0, r4
 8001be4:	f7ff ff5e 	bl	8001aa4 <HAL_TIM_PWM_PulseFinishedCallback>
 8001be8:	e7af      	b.n	8001b4a <HAL_TIM_IRQHandler+0xa2>
 8001bea:	bd10      	pop	{r4, pc}

08001bec <TIM_Base_SetConfig>:
 8001bec:	4a1a      	ldr	r2, [pc, #104]	; (8001c58 <TIM_Base_SetConfig+0x6c>)
 8001bee:	6803      	ldr	r3, [r0, #0]
 8001bf0:	4290      	cmp	r0, r2
 8001bf2:	d00a      	beq.n	8001c0a <TIM_Base_SetConfig+0x1e>
 8001bf4:	f1b0 4f80 	cmp.w	r0, #1073741824	; 0x40000000
 8001bf8:	d007      	beq.n	8001c0a <TIM_Base_SetConfig+0x1e>
 8001bfa:	f5a2 3294 	sub.w	r2, r2, #75776	; 0x12800
 8001bfe:	4290      	cmp	r0, r2
 8001c00:	d003      	beq.n	8001c0a <TIM_Base_SetConfig+0x1e>
 8001c02:	f502 6280 	add.w	r2, r2, #1024	; 0x400
 8001c06:	4290      	cmp	r0, r2
 8001c08:	d115      	bne.n	8001c36 <TIM_Base_SetConfig+0x4a>
 8001c0a:	684a      	ldr	r2, [r1, #4]
 8001c0c:	f023 0370 	bic.w	r3, r3, #112	; 0x70
 8001c10:	4313      	orrs	r3, r2
 8001c12:	4a11      	ldr	r2, [pc, #68]	; (8001c58 <TIM_Base_SetConfig+0x6c>)
 8001c14:	4290      	cmp	r0, r2
 8001c16:	d00a      	beq.n	8001c2e <TIM_Base_SetConfig+0x42>
 8001c18:	f1b0 4f80 	cmp.w	r0, #1073741824	; 0x40000000
 8001c1c:	d007      	beq.n	8001c2e <TIM_Base_SetConfig+0x42>
 8001c1e:	f5a2 3294 	sub.w	r2, r2, #75776	; 0x12800
 8001c22:	4290      	cmp	r0, r2
 8001c24:	d003      	beq.n	8001c2e <TIM_Base_SetConfig+0x42>
 8001c26:	f502 6280 	add.w	r2, r2, #1024	; 0x400
 8001c2a:	4290      	cmp	r0, r2
 8001c2c:	d103      	bne.n	8001c36 <TIM_Base_SetConfig+0x4a>
 8001c2e:	68ca      	ldr	r2, [r1, #12]
 8001c30:	f423 7340 	bic.w	r3, r3, #768	; 0x300
 8001c34:	4313      	orrs	r3, r2
 8001c36:	694a      	ldr	r2, [r1, #20]
 8001c38:	f023 0380 	bic.w	r3, r3, #128	; 0x80
 8001c3c:	4313      	orrs	r3, r2
 8001c3e:	6003      	str	r3, [r0, #0]
 8001c40:	688b      	ldr	r3, [r1, #8]
 8001c42:	62c3      	str	r3, [r0, #44]	; 0x2c
 8001c44:	680b      	ldr	r3, [r1, #0]
 8001c46:	6283      	str	r3, [r0, #40]	; 0x28
 8001c48:	4b03      	ldr	r3, [pc, #12]	; (8001c58 <TIM_Base_SetConfig+0x6c>)
 8001c4a:	4298      	cmp	r0, r3
 8001c4c:	bf04      	itt	eq
 8001c4e:	690b      	ldreq	r3, [r1, #16]
 8001c50:	6303      	streq	r3, [r0, #48]	; 0x30
 8001c52:	2301      	movs	r3, #1
 8001c54:	6143      	str	r3, [r0, #20]
 8001c56:	4770      	bx	lr
 8001c58:	40012c00 	.word	0x40012c00

08001c5c <HAL_TIM_Base_Init>:
 8001c5c:	b510      	push	{r4, lr}
 8001c5e:	4604      	mov	r4, r0
 8001c60:	b330      	cbz	r0, 8001cb0 <HAL_TIM_Base_Init+0x54>
 8001c62:	f890 303d 	ldrb.w	r3, [r0, #61]	; 0x3d
 8001c66:	f003 02ff 	and.w	r2, r3, #255	; 0xff
 8001c6a:	b91b      	cbnz	r3, 8001c74 <HAL_TIM_Base_Init+0x18>
 8001c6c:	f880 203c 	strb.w	r2, [r0, #60]	; 0x3c
 8001c70:	f7fe fbdc 	bl	800042c <HAL_TIM_Base_MspInit>
 8001c74:	2302      	movs	r3, #2
 8001c76:	6820      	ldr	r0, [r4, #0]
 8001c78:	f884 303d 	strb.w	r3, [r4, #61]	; 0x3d
 8001c7c:	1d21      	adds	r1, r4, #4
 8001c7e:	f7ff ffb5 	bl	8001bec <TIM_Base_SetConfig>
 8001c82:	2301      	movs	r3, #1
 8001c84:	2000      	movs	r0, #0
 8001c86:	f884 3046 	strb.w	r3, [r4, #70]	; 0x46
 8001c8a:	f884 303e 	strb.w	r3, [r4, #62]	; 0x3e
 8001c8e:	f884 303f 	strb.w	r3, [r4, #63]	; 0x3f
 8001c92:	f884 3040 	strb.w	r3, [r4, #64]	; 0x40
 8001c96:	f884 3041 	strb.w	r3, [r4, #65]	; 0x41
 8001c9a:	f884 3042 	strb.w	r3, [r4, #66]	; 0x42
 8001c9e:	f884 3043 	strb.w	r3, [r4, #67]	; 0x43
 8001ca2:	f884 3044 	strb.w	r3, [r4, #68]	; 0x44
 8001ca6:	f884 3045 	strb.w	r3, [r4, #69]	; 0x45
 8001caa:	f884 303d 	strb.w	r3, [r4, #61]	; 0x3d
 8001cae:	bd10      	pop	{r4, pc}
 8001cb0:	2001      	movs	r0, #1
 8001cb2:	e7fc      	b.n	8001cae <HAL_TIM_Base_Init+0x52>

08001cb4 <TIM_ETR_SetConfig>:
 8001cb4:	b510      	push	{r4, lr}
 8001cb6:	6884      	ldr	r4, [r0, #8]
 8001cb8:	430a      	orrs	r2, r1
 8001cba:	f424 447f 	bic.w	r4, r4, #65280	; 0xff00
 8001cbe:	ea42 2303 	orr.w	r3, r2, r3, lsl #8
 8001cc2:	4323      	orrs	r3, r4
 8001cc4:	6083      	str	r3, [r0, #8]
 8001cc6:	bd10      	pop	{r4, pc}

08001cc8 <HAL_TIM_ConfigClockSource>:
 8001cc8:	f890 303c 	ldrb.w	r3, [r0, #60]	; 0x3c
 8001ccc:	b570      	push	{r4, r5, r6, lr}
 8001cce:	2b01      	cmp	r3, #1
 8001cd0:	4604      	mov	r4, r0
 8001cd2:	f04f 0002 	mov.w	r0, #2
 8001cd6:	d019      	beq.n	8001d0c <HAL_TIM_ConfigClockSource+0x44>
 8001cd8:	2301      	movs	r3, #1
 8001cda:	f884 003d 	strb.w	r0, [r4, #61]	; 0x3d
 8001cde:	6820      	ldr	r0, [r4, #0]
 8001ce0:	f884 303c 	strb.w	r3, [r4, #60]	; 0x3c
 8001ce4:	6883      	ldr	r3, [r0, #8]
 8001ce6:	f423 437f 	bic.w	r3, r3, #65280	; 0xff00
 8001cea:	f023 0377 	bic.w	r3, r3, #119	; 0x77
 8001cee:	6083      	str	r3, [r0, #8]
 8001cf0:	680b      	ldr	r3, [r1, #0]
 8001cf2:	2b40      	cmp	r3, #64	; 0x40
 8001cf4:	d065      	beq.n	8001dc2 <HAL_TIM_ConfigClockSource+0xfa>
 8001cf6:	d815      	bhi.n	8001d24 <HAL_TIM_ConfigClockSource+0x5c>
 8001cf8:	2b10      	cmp	r3, #16
 8001cfa:	d00c      	beq.n	8001d16 <HAL_TIM_ConfigClockSource+0x4e>
 8001cfc:	d807      	bhi.n	8001d0e <HAL_TIM_ConfigClockSource+0x46>
 8001cfe:	b153      	cbz	r3, 8001d16 <HAL_TIM_ConfigClockSource+0x4e>
 8001d00:	2301      	movs	r3, #1
 8001d02:	2000      	movs	r0, #0
 8001d04:	f884 303d 	strb.w	r3, [r4, #61]	; 0x3d
 8001d08:	f884 003c 	strb.w	r0, [r4, #60]	; 0x3c
 8001d0c:	bd70      	pop	{r4, r5, r6, pc}
 8001d0e:	2b20      	cmp	r3, #32
 8001d10:	d001      	beq.n	8001d16 <HAL_TIM_ConfigClockSource+0x4e>
 8001d12:	2b30      	cmp	r3, #48	; 0x30
 8001d14:	d1f4      	bne.n	8001d00 <HAL_TIM_ConfigClockSource+0x38>
 8001d16:	6882      	ldr	r2, [r0, #8]
 8001d18:	f043 0307 	orr.w	r3, r3, #7
 8001d1c:	f022 0270 	bic.w	r2, r2, #112	; 0x70
 8001d20:	4313      	orrs	r3, r2
 8001d22:	e01a      	b.n	8001d5a <HAL_TIM_ConfigClockSource+0x92>
 8001d24:	2b60      	cmp	r3, #96	; 0x60
 8001d26:	d034      	beq.n	8001d92 <HAL_TIM_ConfigClockSource+0xca>
 8001d28:	d819      	bhi.n	8001d5e <HAL_TIM_ConfigClockSource+0x96>
 8001d2a:	2b50      	cmp	r3, #80	; 0x50
 8001d2c:	d1e8      	bne.n	8001d00 <HAL_TIM_ConfigClockSource+0x38>
 8001d2e:	684a      	ldr	r2, [r1, #4]
 8001d30:	68ce      	ldr	r6, [r1, #12]
 8001d32:	6a01      	ldr	r1, [r0, #32]
 8001d34:	6a05      	ldr	r5, [r0, #32]
 8001d36:	f021 010a 	bic.w	r1, r1, #10
 8001d3a:	f025 0501 	bic.w	r5, r5, #1
 8001d3e:	6205      	str	r5, [r0, #32]
 8001d40:	6983      	ldr	r3, [r0, #24]
 8001d42:	430a      	orrs	r2, r1
 8001d44:	f023 03f0 	bic.w	r3, r3, #240	; 0xf0
 8001d48:	ea43 1306 	orr.w	r3, r3, r6, lsl #4
 8001d4c:	6183      	str	r3, [r0, #24]
 8001d4e:	6202      	str	r2, [r0, #32]
 8001d50:	6883      	ldr	r3, [r0, #8]
 8001d52:	f023 0370 	bic.w	r3, r3, #112	; 0x70
 8001d56:	f043 0357 	orr.w	r3, r3, #87	; 0x57
 8001d5a:	6083      	str	r3, [r0, #8]
 8001d5c:	e7d0      	b.n	8001d00 <HAL_TIM_ConfigClockSource+0x38>
 8001d5e:	2b70      	cmp	r3, #112	; 0x70
 8001d60:	d00c      	beq.n	8001d7c <HAL_TIM_ConfigClockSource+0xb4>
 8001d62:	f5b3 5f00 	cmp.w	r3, #8192	; 0x2000
 8001d66:	d1cb      	bne.n	8001d00 <HAL_TIM_ConfigClockSource+0x38>
 8001d68:	68cb      	ldr	r3, [r1, #12]
 8001d6a:	e9d1 2101 	ldrd	r2, r1, [r1, #4]
 8001d6e:	f7ff ffa1 	bl	8001cb4 <TIM_ETR_SetConfig>
 8001d72:	6822      	ldr	r2, [r4, #0]
 8001d74:	6893      	ldr	r3, [r2, #8]
 8001d76:	f443 4380 	orr.w	r3, r3, #16384	; 0x4000
 8001d7a:	e008      	b.n	8001d8e <HAL_TIM_ConfigClockSource+0xc6>
 8001d7c:	68cb      	ldr	r3, [r1, #12]
 8001d7e:	e9d1 2101 	ldrd	r2, r1, [r1, #4]
 8001d82:	f7ff ff97 	bl	8001cb4 <TIM_ETR_SetConfig>
 8001d86:	6822      	ldr	r2, [r4, #0]
 8001d88:	6893      	ldr	r3, [r2, #8]
 8001d8a:	f043 0377 	orr.w	r3, r3, #119	; 0x77
 8001d8e:	6093      	str	r3, [r2, #8]
 8001d90:	e7b6      	b.n	8001d00 <HAL_TIM_ConfigClockSource+0x38>
 8001d92:	684d      	ldr	r5, [r1, #4]
 8001d94:	68ce      	ldr	r6, [r1, #12]
 8001d96:	6a01      	ldr	r1, [r0, #32]
 8001d98:	f021 0110 	bic.w	r1, r1, #16
 8001d9c:	6201      	str	r1, [r0, #32]
 8001d9e:	6982      	ldr	r2, [r0, #24]
 8001da0:	6a03      	ldr	r3, [r0, #32]
 8001da2:	f422 4270 	bic.w	r2, r2, #61440	; 0xf000
 8001da6:	f023 03a0 	bic.w	r3, r3, #160	; 0xa0
 8001daa:	ea43 1305 	orr.w	r3, r3, r5, lsl #4
 8001dae:	ea42 3206 	orr.w	r2, r2, r6, lsl #12
 8001db2:	6182      	str	r2, [r0, #24]
 8001db4:	6203      	str	r3, [r0, #32]
 8001db6:	6883      	ldr	r3, [r0, #8]
 8001db8:	f023 0370 	bic.w	r3, r3, #112	; 0x70
 8001dbc:	f043 0367 	orr.w	r3, r3, #103	; 0x67
 8001dc0:	e7cb      	b.n	8001d5a <HAL_TIM_ConfigClockSource+0x92>
 8001dc2:	684a      	ldr	r2, [r1, #4]
 8001dc4:	68ce      	ldr	r6, [r1, #12]
 8001dc6:	6a01      	ldr	r1, [r0, #32]
 8001dc8:	6a05      	ldr	r5, [r0, #32]
 8001dca:	f021 010a 	bic.w	r1, r1, #10
 8001dce:	f025 0501 	bic.w	r5, r5, #1
 8001dd2:	6205      	str	r5, [r0, #32]
 8001dd4:	6983      	ldr	r3, [r0, #24]
 8001dd6:	430a      	orrs	r2, r1
 8001dd8:	f023 03f0 	bic.w	r3, r3, #240	; 0xf0
 8001ddc:	ea43 1306 	orr.w	r3, r3, r6, lsl #4
 8001de0:	6183      	str	r3, [r0, #24]
 8001de2:	6202      	str	r2, [r0, #32]
 8001de4:	6883      	ldr	r3, [r0, #8]
 8001de6:	f023 0370 	bic.w	r3, r3, #112	; 0x70
 8001dea:	f043 0347 	orr.w	r3, r3, #71	; 0x47
 8001dee:	e7b4      	b.n	8001d5a <HAL_TIM_ConfigClockSource+0x92>

08001df0 <HAL_TIMEx_MasterConfigSynchronization>:
 8001df0:	f890 303c 	ldrb.w	r3, [r0, #60]	; 0x3c
 8001df4:	b530      	push	{r4, r5, lr}
 8001df6:	2b01      	cmp	r3, #1
 8001df8:	f04f 0302 	mov.w	r3, #2
 8001dfc:	d025      	beq.n	8001e4a <HAL_TIMEx_MasterConfigSynchronization+0x5a>
 8001dfe:	2201      	movs	r2, #1
 8001e00:	f880 303d 	strb.w	r3, [r0, #61]	; 0x3d
 8001e04:	6803      	ldr	r3, [r0, #0]
 8001e06:	680d      	ldr	r5, [r1, #0]
 8001e08:	685c      	ldr	r4, [r3, #4]
 8001e0a:	f880 203c 	strb.w	r2, [r0, #60]	; 0x3c
 8001e0e:	f024 0470 	bic.w	r4, r4, #112	; 0x70
 8001e12:	432c      	orrs	r4, r5
 8001e14:	689a      	ldr	r2, [r3, #8]
 8001e16:	605c      	str	r4, [r3, #4]
 8001e18:	4c0d      	ldr	r4, [pc, #52]	; (8001e50 <HAL_TIMEx_MasterConfigSynchronization+0x60>)
 8001e1a:	42a3      	cmp	r3, r4
 8001e1c:	d00a      	beq.n	8001e34 <HAL_TIMEx_MasterConfigSynchronization+0x44>
 8001e1e:	f1b3 4f80 	cmp.w	r3, #1073741824	; 0x40000000
 8001e22:	d007      	beq.n	8001e34 <HAL_TIMEx_MasterConfigSynchronization+0x44>
 8001e24:	f5a4 3494 	sub.w	r4, r4, #75776	; 0x12800
 8001e28:	42a3      	cmp	r3, r4
 8001e2a:	d003      	beq.n	8001e34 <HAL_TIMEx_MasterConfigSynchronization+0x44>
 8001e2c:	f504 6480 	add.w	r4, r4, #1024	; 0x400
 8001e30:	42a3      	cmp	r3, r4
 8001e32:	d104      	bne.n	8001e3e <HAL_TIMEx_MasterConfigSynchronization+0x4e>
 8001e34:	6849      	ldr	r1, [r1, #4]
 8001e36:	f022 0280 	bic.w	r2, r2, #128	; 0x80
 8001e3a:	430a      	orrs	r2, r1
 8001e3c:	609a      	str	r2, [r3, #8]
 8001e3e:	2301      	movs	r3, #1
 8001e40:	f880 303d 	strb.w	r3, [r0, #61]	; 0x3d
 8001e44:	2300      	movs	r3, #0
 8001e46:	f880 303c 	strb.w	r3, [r0, #60]	; 0x3c
 8001e4a:	4618      	mov	r0, r3
 8001e4c:	bd30      	pop	{r4, r5, pc}
 8001e4e:	bf00      	nop
 8001e50:	40012c00 	.word	0x40012c00

08001e54 <HAL_TIMEx_CommutCallback>:
 8001e54:	4770      	bx	lr

08001e56 <HAL_TIMEx_BreakCallback>:
 8001e56:	4770      	bx	lr

08001e58 <USB_CoreInit>:
 8001e58:	b084      	sub	sp, #16
 8001e5a:	a801      	add	r0, sp, #4
 8001e5c:	e880 000e 	stmia.w	r0, {r1, r2, r3}
 8001e60:	b004      	add	sp, #16
 8001e62:	2000      	movs	r0, #0
 8001e64:	4770      	bx	lr

08001e66 <USB_EnableGlobalInt>:
 8001e66:	2300      	movs	r3, #0
 8001e68:	f44f 423f 	mov.w	r2, #48896	; 0xbf00
 8001e6c:	f8a0 3044 	strh.w	r3, [r0, #68]	; 0x44
 8001e70:	f8a0 2040 	strh.w	r2, [r0, #64]	; 0x40
 8001e74:	4618      	mov	r0, r3
 8001e76:	4770      	bx	lr

08001e78 <USB_DisableGlobalInt>:
 8001e78:	f8b0 3040 	ldrh.w	r3, [r0, #64]	; 0x40
 8001e7c:	f423 537c 	bic.w	r3, r3, #16128	; 0x3f00
 8001e80:	045b      	lsls	r3, r3, #17
 8001e82:	0c5b      	lsrs	r3, r3, #17
 8001e84:	f8a0 3040 	strh.w	r3, [r0, #64]	; 0x40
 8001e88:	2000      	movs	r0, #0
 8001e8a:	4770      	bx	lr

08001e8c <USB_SetCurrentMode>:
 8001e8c:	2000      	movs	r0, #0
 8001e8e:	4770      	bx	lr

08001e90 <USB_DevInit>:
 8001e90:	b084      	sub	sp, #16
 8001e92:	b510      	push	{r4, lr}
 8001e94:	ac03      	add	r4, sp, #12
 8001e96:	e884 000e 	stmia.w	r4, {r1, r2, r3}
 8001e9a:	e8bd 4010 	ldmia.w	sp!, {r4, lr}
 8001e9e:	2301      	movs	r3, #1
 8001ea0:	f8a0 3040 	strh.w	r3, [r0, #64]	; 0x40
 8001ea4:	2300      	movs	r3, #0
 8001ea6:	b004      	add	sp, #16
 8001ea8:	f8a0 3040 	strh.w	r3, [r0, #64]	; 0x40
 8001eac:	f8a0 3044 	strh.w	r3, [r0, #68]	; 0x44
 8001eb0:	f8a0 3050 	strh.w	r3, [r0, #80]	; 0x50
 8001eb4:	4618      	mov	r0, r3
 8001eb6:	4770      	bx	lr

08001eb8 <USB_ActivateEndpoint>:
 8001eb8:	b5f0      	push	{r4, r5, r6, r7, lr}
 8001eba:	780c      	ldrb	r4, [r1, #0]
 8001ebc:	4603      	mov	r3, r0
 8001ebe:	f830 2024 	ldrh.w	r2, [r0, r4, lsl #2]
 8001ec2:	78c8      	ldrb	r0, [r1, #3]
 8001ec4:	f422 42ec 	bic.w	r2, r2, #30208	; 0x7600
 8001ec8:	f022 0270 	bic.w	r2, r2, #112	; 0x70
 8001ecc:	2803      	cmp	r0, #3
 8001ece:	d803      	bhi.n	8001ed8 <USB_ActivateEndpoint+0x20>
 8001ed0:	e8df f000 	tbb	[pc, r0]
 8001ed4:	46444942 	.word	0x46444942
 8001ed8:	2001      	movs	r0, #1
 8001eda:	f248 0580 	movw	r5, #32896	; 0x8080
 8001ede:	432a      	orrs	r2, r5
 8001ee0:	f823 2024 	strh.w	r2, [r3, r4, lsl #2]
 8001ee4:	780e      	ldrb	r6, [r1, #0]
 8001ee6:	4a90      	ldr	r2, [pc, #576]	; (8002128 <USB_ActivateEndpoint+0x270>)
 8001ee8:	f833 4026 	ldrh.w	r4, [r3, r6, lsl #2]
 8001eec:	4335      	orrs	r5, r6
 8001eee:	4014      	ands	r4, r2
 8001ef0:	432c      	orrs	r4, r5
 8001ef2:	f823 4026 	strh.w	r4, [r3, r6, lsl #2]
 8001ef6:	7b0d      	ldrb	r5, [r1, #12]
 8001ef8:	780c      	ldrb	r4, [r1, #0]
 8001efa:	2d00      	cmp	r5, #0
 8001efc:	f040 8082 	bne.w	8002004 <USB_ActivateEndpoint+0x14c>
 8001f00:	88cd      	ldrh	r5, [r1, #6]
 8001f02:	784e      	ldrb	r6, [r1, #1]
 8001f04:	086d      	lsrs	r5, r5, #1
 8001f06:	006d      	lsls	r5, r5, #1
 8001f08:	eb03 1404 	add.w	r4, r3, r4, lsl #4
 8001f0c:	b376      	cbz	r6, 8001f6c <USB_ActivateEndpoint+0xb4>
 8001f0e:	f8b3 6050 	ldrh.w	r6, [r3, #80]	; 0x50
 8001f12:	4434      	add	r4, r6
 8001f14:	f8a4 5400 	strh.w	r5, [r4, #1024]	; 0x400
 8001f18:	780d      	ldrb	r5, [r1, #0]
 8001f1a:	f833 4025 	ldrh.w	r4, [r3, r5, lsl #2]
 8001f1e:	0667      	lsls	r7, r4, #25
 8001f20:	d508      	bpl.n	8001f34 <USB_ActivateEndpoint+0x7c>
 8001f22:	f833 4025 	ldrh.w	r4, [r3, r5, lsl #2]
 8001f26:	4022      	ands	r2, r4
 8001f28:	f442 4200 	orr.w	r2, r2, #32768	; 0x8000
 8001f2c:	f042 02c0 	orr.w	r2, r2, #192	; 0xc0
 8001f30:	f823 2025 	strh.w	r2, [r3, r5, lsl #2]
 8001f34:	78ca      	ldrb	r2, [r1, #3]
 8001f36:	780c      	ldrb	r4, [r1, #0]
 8001f38:	2a01      	cmp	r2, #1
 8001f3a:	f833 1024 	ldrh.w	r1, [r3, r4, lsl #2]
 8001f3e:	4a7b      	ldr	r2, [pc, #492]	; (800212c <USB_ActivateEndpoint+0x274>)
 8001f40:	ea02 0201 	and.w	r2, r2, r1
 8001f44:	bf18      	it	ne
 8001f46:	f082 0220 	eorne.w	r2, r2, #32
 8001f4a:	f442 4200 	orr.w	r2, r2, #32768	; 0x8000
 8001f4e:	f042 0280 	orr.w	r2, r2, #128	; 0x80
 8001f52:	f823 2024 	strh.w	r2, [r3, r4, lsl #2]
 8001f56:	bdf0      	pop	{r4, r5, r6, r7, pc}
 8001f58:	f442 7200 	orr.w	r2, r2, #512	; 0x200
 8001f5c:	2000      	movs	r0, #0
 8001f5e:	e7bc      	b.n	8001eda <USB_ActivateEndpoint+0x22>
 8001f60:	f442 62c0 	orr.w	r2, r2, #1536	; 0x600
 8001f64:	e7fa      	b.n	8001f5c <USB_ActivateEndpoint+0xa4>
 8001f66:	f442 6280 	orr.w	r2, r2, #1024	; 0x400
 8001f6a:	e7f7      	b.n	8001f5c <USB_ActivateEndpoint+0xa4>
 8001f6c:	f8b3 2050 	ldrh.w	r2, [r3, #80]	; 0x50
 8001f70:	690e      	ldr	r6, [r1, #16]
 8001f72:	4414      	add	r4, r2
 8001f74:	f8a4 5408 	strh.w	r5, [r4, #1032]	; 0x408
 8001f78:	780a      	ldrb	r2, [r1, #0]
 8001f7a:	f8b3 4050 	ldrh.w	r4, [r3, #80]	; 0x50
 8001f7e:	eb03 1202 	add.w	r2, r3, r2, lsl #4
 8001f82:	b2a4      	uxth	r4, r4
 8001f84:	f202 420c 	addw	r2, r2, #1036	; 0x40c
 8001f88:	bb56      	cbnz	r6, 8001fe0 <USB_ActivateEndpoint+0x128>
 8001f8a:	5b15      	ldrh	r5, [r2, r4]
 8001f8c:	f425 45f8 	bic.w	r5, r5, #31744	; 0x7c00
 8001f90:	042d      	lsls	r5, r5, #16
 8001f92:	0c2d      	lsrs	r5, r5, #16
 8001f94:	5315      	strh	r5, [r2, r4]
 8001f96:	5b15      	ldrh	r5, [r2, r4]
 8001f98:	f445 4500 	orr.w	r5, r5, #32768	; 0x8000
 8001f9c:	5315      	strh	r5, [r2, r4]
 8001f9e:	780c      	ldrb	r4, [r1, #0]
 8001fa0:	f833 2024 	ldrh.w	r2, [r3, r4, lsl #2]
 8001fa4:	0457      	lsls	r7, r2, #17
 8001fa6:	d50b      	bpl.n	8001fc0 <USB_ActivateEndpoint+0x108>
 8001fa8:	f833 2024 	ldrh.w	r2, [r3, r4, lsl #2]
 8001fac:	f022 02f0 	bic.w	r2, r2, #240	; 0xf0
 8001fb0:	0512      	lsls	r2, r2, #20
 8001fb2:	0d12      	lsrs	r2, r2, #20
 8001fb4:	f442 4240 	orr.w	r2, r2, #49152	; 0xc000
 8001fb8:	f042 0280 	orr.w	r2, r2, #128	; 0x80
 8001fbc:	f823 2024 	strh.w	r2, [r3, r4, lsl #2]
 8001fc0:	7809      	ldrb	r1, [r1, #0]
 8001fc2:	f833 2021 	ldrh.w	r2, [r3, r1, lsl #2]
 8001fc6:	f422 4280 	bic.w	r2, r2, #16384	; 0x4000
 8001fca:	f022 0270 	bic.w	r2, r2, #112	; 0x70
 8001fce:	f482 5240 	eor.w	r2, r2, #12288	; 0x3000
 8001fd2:	f442 4200 	orr.w	r2, r2, #32768	; 0x8000
 8001fd6:	f042 0280 	orr.w	r2, r2, #128	; 0x80
 8001fda:	f823 2021 	strh.w	r2, [r3, r1, lsl #2]
 8001fde:	e7ba      	b.n	8001f56 <USB_ActivateEndpoint+0x9e>
 8001fe0:	2e3e      	cmp	r6, #62	; 0x3e
 8001fe2:	d806      	bhi.n	8001ff2 <USB_ActivateEndpoint+0x13a>
 8001fe4:	0875      	lsrs	r5, r6, #1
 8001fe6:	07f6      	lsls	r6, r6, #31
 8001fe8:	bf48      	it	mi
 8001fea:	3501      	addmi	r5, #1
 8001fec:	02ad      	lsls	r5, r5, #10
 8001fee:	b2ad      	uxth	r5, r5
 8001ff0:	e7d4      	b.n	8001f9c <USB_ActivateEndpoint+0xe4>
 8001ff2:	0977      	lsrs	r7, r6, #5
 8001ff4:	06f5      	lsls	r5, r6, #27
 8001ff6:	4d4e      	ldr	r5, [pc, #312]	; (8002130 <USB_ActivateEndpoint+0x278>)
 8001ff8:	bf08      	it	eq
 8001ffa:	f107 37ff 	addeq.w	r7, r7, #4294967295
 8001ffe:	ea45 2587 	orr.w	r5, r5, r7, lsl #10
 8002002:	e7f4      	b.n	8001fee <USB_ActivateEndpoint+0x136>
 8002004:	f833 5024 	ldrh.w	r5, [r3, r4, lsl #2]
 8002008:	4015      	ands	r5, r2
 800200a:	f445 4501 	orr.w	r5, r5, #33024	; 0x8100
 800200e:	f045 0580 	orr.w	r5, r5, #128	; 0x80
 8002012:	f823 5024 	strh.w	r5, [r3, r4, lsl #2]
 8002016:	780c      	ldrb	r4, [r1, #0]
 8002018:	890d      	ldrh	r5, [r1, #8]
 800201a:	f8b3 6050 	ldrh.w	r6, [r3, #80]	; 0x50
 800201e:	eb03 1404 	add.w	r4, r3, r4, lsl #4
 8002022:	086d      	lsrs	r5, r5, #1
 8002024:	b2b6      	uxth	r6, r6
 8002026:	f504 6480 	add.w	r4, r4, #1024	; 0x400
 800202a:	006d      	lsls	r5, r5, #1
 800202c:	53a5      	strh	r5, [r4, r6]
 800202e:	780c      	ldrb	r4, [r1, #0]
 8002030:	894d      	ldrh	r5, [r1, #10]
 8002032:	f8b3 6050 	ldrh.w	r6, [r3, #80]	; 0x50
 8002036:	eb03 1404 	add.w	r4, r3, r4, lsl #4
 800203a:	086d      	lsrs	r5, r5, #1
 800203c:	f504 6481 	add.w	r4, r4, #1032	; 0x408
 8002040:	006d      	lsls	r5, r5, #1
 8002042:	b2b6      	uxth	r6, r6
 8002044:	53a5      	strh	r5, [r4, r6]
 8002046:	784c      	ldrb	r4, [r1, #1]
 8002048:	780d      	ldrb	r5, [r1, #0]
 800204a:	bbb4      	cbnz	r4, 80020ba <USB_ActivateEndpoint+0x202>
 800204c:	f833 4025 	ldrh.w	r4, [r3, r5, lsl #2]
 8002050:	0466      	lsls	r6, r4, #17
 8002052:	d508      	bpl.n	8002066 <USB_ActivateEndpoint+0x1ae>
 8002054:	f833 4025 	ldrh.w	r4, [r3, r5, lsl #2]
 8002058:	4022      	ands	r2, r4
 800205a:	f442 4240 	orr.w	r2, r2, #49152	; 0xc000
 800205e:	f042 0280 	orr.w	r2, r2, #128	; 0x80
 8002062:	f823 2025 	strh.w	r2, [r3, r5, lsl #2]
 8002066:	780c      	ldrb	r4, [r1, #0]
 8002068:	f833 2024 	ldrh.w	r2, [r3, r4, lsl #2]
 800206c:	0655      	lsls	r5, r2, #25
 800206e:	d50b      	bpl.n	8002088 <USB_ActivateEndpoint+0x1d0>
 8002070:	f833 2024 	ldrh.w	r2, [r3, r4, lsl #2]
 8002074:	f022 02f0 	bic.w	r2, r2, #240	; 0xf0
 8002078:	0512      	lsls	r2, r2, #20
 800207a:	0d12      	lsrs	r2, r2, #20
 800207c:	f442 4200 	orr.w	r2, r2, #32768	; 0x8000
 8002080:	f042 02c0 	orr.w	r2, r2, #192	; 0xc0
 8002084:	f823 2024 	strh.w	r2, [r3, r4, lsl #2]
 8002088:	f248 0480 	movw	r4, #32896	; 0x8080
 800208c:	780d      	ldrb	r5, [r1, #0]
 800208e:	f833 2025 	ldrh.w	r2, [r3, r5, lsl #2]
 8002092:	f422 4280 	bic.w	r2, r2, #16384	; 0x4000
 8002096:	f022 0270 	bic.w	r2, r2, #112	; 0x70
 800209a:	f482 5240 	eor.w	r2, r2, #12288	; 0x3000
 800209e:	4322      	orrs	r2, r4
 80020a0:	f823 2025 	strh.w	r2, [r3, r5, lsl #2]
 80020a4:	7809      	ldrb	r1, [r1, #0]
 80020a6:	f833 2021 	ldrh.w	r2, [r3, r1, lsl #2]
 80020aa:	f422 42e0 	bic.w	r2, r2, #28672	; 0x7000
 80020ae:	f022 0240 	bic.w	r2, r2, #64	; 0x40
 80020b2:	4314      	orrs	r4, r2
 80020b4:	f823 4021 	strh.w	r4, [r3, r1, lsl #2]
 80020b8:	e74d      	b.n	8001f56 <USB_ActivateEndpoint+0x9e>
 80020ba:	f833 4025 	ldrh.w	r4, [r3, r5, lsl #2]
 80020be:	0464      	lsls	r4, r4, #17
 80020c0:	d508      	bpl.n	80020d4 <USB_ActivateEndpoint+0x21c>
 80020c2:	f833 4025 	ldrh.w	r4, [r3, r5, lsl #2]
 80020c6:	4022      	ands	r2, r4
 80020c8:	f442 4240 	orr.w	r2, r2, #49152	; 0xc000
 80020cc:	f042 0280 	orr.w	r2, r2, #128	; 0x80
 80020d0:	f823 2025 	strh.w	r2, [r3, r5, lsl #2]
 80020d4:	780c      	ldrb	r4, [r1, #0]
 80020d6:	f833 2024 	ldrh.w	r2, [r3, r4, lsl #2]
 80020da:	0652      	lsls	r2, r2, #25
 80020dc:	d50b      	bpl.n	80020f6 <USB_ActivateEndpoint+0x23e>
 80020de:	f833 2024 	ldrh.w	r2, [r3, r4, lsl #2]
 80020e2:	f022 02f0 	bic.w	r2, r2, #240	; 0xf0
 80020e6:	0512      	lsls	r2, r2, #20
 80020e8:	0d12      	lsrs	r2, r2, #20
 80020ea:	f442 4200 	orr.w	r2, r2, #32768	; 0x8000
 80020ee:	f042 02c0 	orr.w	r2, r2, #192	; 0xc0
 80020f2:	f823 2024 	strh.w	r2, [r3, r4, lsl #2]
 80020f6:	78ca      	ldrb	r2, [r1, #3]
 80020f8:	780c      	ldrb	r4, [r1, #0]
 80020fa:	2a01      	cmp	r2, #1
 80020fc:	f833 5024 	ldrh.w	r5, [r3, r4, lsl #2]
 8002100:	4a0a      	ldr	r2, [pc, #40]	; (800212c <USB_ActivateEndpoint+0x274>)
 8002102:	ea02 0205 	and.w	r2, r2, r5
 8002106:	bf18      	it	ne
 8002108:	f082 0220 	eorne.w	r2, r2, #32
 800210c:	f442 4200 	orr.w	r2, r2, #32768	; 0x8000
 8002110:	f042 0280 	orr.w	r2, r2, #128	; 0x80
 8002114:	f823 2024 	strh.w	r2, [r3, r4, lsl #2]
 8002118:	7809      	ldrb	r1, [r1, #0]
 800211a:	f833 2021 	ldrh.w	r2, [r3, r1, lsl #2]
 800211e:	f022 02f0 	bic.w	r2, r2, #240	; 0xf0
 8002122:	0492      	lsls	r2, r2, #18
 8002124:	0c92      	lsrs	r2, r2, #18
 8002126:	e754      	b.n	8001fd2 <USB_ActivateEndpoint+0x11a>
 8002128:	ffff8f8f 	.word	0xffff8f8f
 800212c:	ffff8fbf 	.word	0xffff8fbf
 8002130:	ffff8000 	.word	0xffff8000

08002134 <USB_DeactivateEndpoint>:
 8002134:	b510      	push	{r4, lr}
 8002136:	7b0c      	ldrb	r4, [r1, #12]
 8002138:	784a      	ldrb	r2, [r1, #1]
 800213a:	780b      	ldrb	r3, [r1, #0]
 800213c:	bbbc      	cbnz	r4, 80021ae <USB_DeactivateEndpoint+0x7a>
 800213e:	b1f2      	cbz	r2, 800217e <USB_DeactivateEndpoint+0x4a>
 8002140:	f830 2023 	ldrh.w	r2, [r0, r3, lsl #2]
 8002144:	0652      	lsls	r2, r2, #25
 8002146:	d50b      	bpl.n	8002160 <USB_DeactivateEndpoint+0x2c>
 8002148:	f830 2023 	ldrh.w	r2, [r0, r3, lsl #2]
 800214c:	f022 02f0 	bic.w	r2, r2, #240	; 0xf0
 8002150:	0512      	lsls	r2, r2, #20
 8002152:	0d12      	lsrs	r2, r2, #20
 8002154:	f442 4200 	orr.w	r2, r2, #32768	; 0x8000
 8002158:	f042 02c0 	orr.w	r2, r2, #192	; 0xc0
 800215c:	f820 2023 	strh.w	r2, [r0, r3, lsl #2]
 8002160:	780a      	ldrb	r2, [r1, #0]
 8002162:	f830 3022 	ldrh.w	r3, [r0, r2, lsl #2]
 8002166:	f023 03c0 	bic.w	r3, r3, #192	; 0xc0
 800216a:	051b      	lsls	r3, r3, #20
 800216c:	0d1b      	lsrs	r3, r3, #20
 800216e:	f443 4300 	orr.w	r3, r3, #32768	; 0x8000
 8002172:	f043 0380 	orr.w	r3, r3, #128	; 0x80
 8002176:	f820 3022 	strh.w	r3, [r0, r2, lsl #2]
 800217a:	2000      	movs	r0, #0
 800217c:	bd10      	pop	{r4, pc}
 800217e:	f830 2023 	ldrh.w	r2, [r0, r3, lsl #2]
 8002182:	0454      	lsls	r4, r2, #17
 8002184:	d50b      	bpl.n	800219e <USB_DeactivateEndpoint+0x6a>
 8002186:	f830 2023 	ldrh.w	r2, [r0, r3, lsl #2]
 800218a:	f022 02f0 	bic.w	r2, r2, #240	; 0xf0
 800218e:	0512      	lsls	r2, r2, #20
 8002190:	0d12      	lsrs	r2, r2, #20
 8002192:	f442 4240 	orr.w	r2, r2, #49152	; 0xc000
 8002196:	f042 0280 	orr.w	r2, r2, #128	; 0x80
 800219a:	f820 2023 	strh.w	r2, [r0, r3, lsl #2]
 800219e:	780a      	ldrb	r2, [r1, #0]
 80021a0:	f830 3022 	ldrh.w	r3, [r0, r2, lsl #2]
 80021a4:	f023 03f0 	bic.w	r3, r3, #240	; 0xf0
 80021a8:	049b      	lsls	r3, r3, #18
 80021aa:	0c9b      	lsrs	r3, r3, #18
 80021ac:	e7df      	b.n	800216e <USB_DeactivateEndpoint+0x3a>
 80021ae:	2a00      	cmp	r2, #0
 80021b0:	d144      	bne.n	800223c <USB_DeactivateEndpoint+0x108>
 80021b2:	f830 2023 	ldrh.w	r2, [r0, r3, lsl #2]
 80021b6:	0452      	lsls	r2, r2, #17
 80021b8:	d50b      	bpl.n	80021d2 <USB_DeactivateEndpoint+0x9e>
 80021ba:	f830 2023 	ldrh.w	r2, [r0, r3, lsl #2]
 80021be:	f022 02f0 	bic.w	r2, r2, #240	; 0xf0
 80021c2:	0512      	lsls	r2, r2, #20
 80021c4:	0d12      	lsrs	r2, r2, #20
 80021c6:	f442 4240 	orr.w	r2, r2, #49152	; 0xc000
 80021ca:	f042 0280 	orr.w	r2, r2, #128	; 0x80
 80021ce:	f820 2023 	strh.w	r2, [r0, r3, lsl #2]
 80021d2:	780a      	ldrb	r2, [r1, #0]
 80021d4:	f830 3022 	ldrh.w	r3, [r0, r2, lsl #2]
 80021d8:	065c      	lsls	r4, r3, #25
 80021da:	d50b      	bpl.n	80021f4 <USB_DeactivateEndpoint+0xc0>
 80021dc:	f830 3022 	ldrh.w	r3, [r0, r2, lsl #2]
 80021e0:	f023 03f0 	bic.w	r3, r3, #240	; 0xf0
 80021e4:	051b      	lsls	r3, r3, #20
 80021e6:	0d1b      	lsrs	r3, r3, #20
 80021e8:	f443 4300 	orr.w	r3, r3, #32768	; 0x8000
 80021ec:	f043 03c0 	orr.w	r3, r3, #192	; 0xc0
 80021f0:	f820 3022 	strh.w	r3, [r0, r2, lsl #2]
 80021f4:	780a      	ldrb	r2, [r1, #0]
 80021f6:	f830 3022 	ldrh.w	r3, [r0, r2, lsl #2]
 80021fa:	f023 03f0 	bic.w	r3, r3, #240	; 0xf0
 80021fe:	051b      	lsls	r3, r3, #20
 8002200:	0d1b      	lsrs	r3, r3, #20
 8002202:	f443 4300 	orr.w	r3, r3, #32768	; 0x8000
 8002206:	f043 03c0 	orr.w	r3, r3, #192	; 0xc0
 800220a:	f820 3022 	strh.w	r3, [r0, r2, lsl #2]
 800220e:	f248 0280 	movw	r2, #32896	; 0x8080
 8002212:	780c      	ldrb	r4, [r1, #0]
 8002214:	f830 3024 	ldrh.w	r3, [r0, r4, lsl #2]
 8002218:	f423 4380 	bic.w	r3, r3, #16384	; 0x4000
 800221c:	f023 0370 	bic.w	r3, r3, #112	; 0x70
 8002220:	4313      	orrs	r3, r2
 8002222:	f820 3024 	strh.w	r3, [r0, r4, lsl #2]
 8002226:	7809      	ldrb	r1, [r1, #0]
 8002228:	f830 3021 	ldrh.w	r3, [r0, r1, lsl #2]
 800222c:	f423 43e0 	bic.w	r3, r3, #28672	; 0x7000
 8002230:	f023 0340 	bic.w	r3, r3, #64	; 0x40
 8002234:	431a      	orrs	r2, r3
 8002236:	f820 2021 	strh.w	r2, [r0, r1, lsl #2]
 800223a:	e79e      	b.n	800217a <USB_DeactivateEndpoint+0x46>
 800223c:	f830 2023 	ldrh.w	r2, [r0, r3, lsl #2]
 8002240:	0452      	lsls	r2, r2, #17
 8002242:	d50b      	bpl.n	800225c <USB_DeactivateEndpoint+0x128>
 8002244:	f830 2023 	ldrh.w	r2, [r0, r3, lsl #2]
 8002248:	f022 02f0 	bic.w	r2, r2, #240	; 0xf0
 800224c:	0512      	lsls	r2, r2, #20
 800224e:	0d12      	lsrs	r2, r2, #20
 8002250:	f442 4240 	orr.w	r2, r2, #49152	; 0xc000
 8002254:	f042 0280 	orr.w	r2, r2, #128	; 0x80
 8002258:	f820 2023 	strh.w	r2, [r0, r3, lsl #2]
 800225c:	780a      	ldrb	r2, [r1, #0]
 800225e:	f830 3022 	ldrh.w	r3, [r0, r2, lsl #2]
 8002262:	065b      	lsls	r3, r3, #25
 8002264:	d50b      	bpl.n	800227e <USB_DeactivateEndpoint+0x14a>
 8002266:	f830 3022 	ldrh.w	r3, [r0, r2, lsl #2]
 800226a:	f023 03f0 	bic.w	r3, r3, #240	; 0xf0
 800226e:	051b      	lsls	r3, r3, #20
 8002270:	0d1b      	lsrs	r3, r3, #20
 8002272:	f443 4300 	orr.w	r3, r3, #32768	; 0x8000
 8002276:	f043 03c0 	orr.w	r3, r3, #192	; 0xc0
 800227a:	f820 3022 	strh.w	r3, [r0, r2, lsl #2]
 800227e:	780a      	ldrb	r2, [r1, #0]
 8002280:	f830 3022 	ldrh.w	r3, [r0, r2, lsl #2]
 8002284:	f023 03f0 	bic.w	r3, r3, #240	; 0xf0
 8002288:	051b      	lsls	r3, r3, #20
 800228a:	0d1b      	lsrs	r3, r3, #20
 800228c:	f443 4340 	orr.w	r3, r3, #49152	; 0xc000
 8002290:	f043 0380 	orr.w	r3, r3, #128	; 0x80
 8002294:	f820 3022 	strh.w	r3, [r0, r2, lsl #2]
 8002298:	f248 0280 	movw	r2, #32896	; 0x8080
 800229c:	780c      	ldrb	r4, [r1, #0]
 800229e:	f830 3024 	ldrh.w	r3, [r0, r4, lsl #2]
 80022a2:	f423 43e0 	bic.w	r3, r3, #28672	; 0x7000
 80022a6:	f023 0340 	bic.w	r3, r3, #64	; 0x40
 80022aa:	4313      	orrs	r3, r2
 80022ac:	f820 3024 	strh.w	r3, [r0, r4, lsl #2]
 80022b0:	7809      	ldrb	r1, [r1, #0]
 80022b2:	f830 3021 	ldrh.w	r3, [r0, r1, lsl #2]
 80022b6:	f423 4380 	bic.w	r3, r3, #16384	; 0x4000
 80022ba:	f023 0370 	bic.w	r3, r3, #112	; 0x70
 80022be:	e7b9      	b.n	8002234 <USB_DeactivateEndpoint+0x100>

080022c0 <USB_EPSetStall>:
 80022c0:	784b      	ldrb	r3, [r1, #1]
 80022c2:	780a      	ldrb	r2, [r1, #0]
 80022c4:	b17b      	cbz	r3, 80022e6 <USB_EPSetStall+0x26>
 80022c6:	f830 3022 	ldrh.w	r3, [r0, r2, lsl #2]
 80022ca:	f423 43e0 	bic.w	r3, r3, #28672	; 0x7000
 80022ce:	f023 0340 	bic.w	r3, r3, #64	; 0x40
 80022d2:	f083 0310 	eor.w	r3, r3, #16
 80022d6:	f443 4300 	orr.w	r3, r3, #32768	; 0x8000
 80022da:	f043 0380 	orr.w	r3, r3, #128	; 0x80
 80022de:	f820 3022 	strh.w	r3, [r0, r2, lsl #2]
 80022e2:	2000      	movs	r0, #0
 80022e4:	4770      	bx	lr
 80022e6:	f830 3022 	ldrh.w	r3, [r0, r2, lsl #2]
 80022ea:	f423 4380 	bic.w	r3, r3, #16384	; 0x4000
 80022ee:	f023 0370 	bic.w	r3, r3, #112	; 0x70
 80022f2:	f483 5380 	eor.w	r3, r3, #4096	; 0x1000
 80022f6:	e7ee      	b.n	80022d6 <USB_EPSetStall+0x16>

080022f8 <USB_EPClearStall>:
 80022f8:	7b0b      	ldrb	r3, [r1, #12]
 80022fa:	bb23      	cbnz	r3, 8002346 <USB_EPClearStall+0x4e>
 80022fc:	784b      	ldrb	r3, [r1, #1]
 80022fe:	780a      	ldrb	r2, [r1, #0]
 8002300:	b31b      	cbz	r3, 800234a <USB_EPClearStall+0x52>
 8002302:	f830 3022 	ldrh.w	r3, [r0, r2, lsl #2]
 8002306:	065b      	lsls	r3, r3, #25
 8002308:	d50b      	bpl.n	8002322 <USB_EPClearStall+0x2a>
 800230a:	f830 3022 	ldrh.w	r3, [r0, r2, lsl #2]
 800230e:	f023 03f0 	bic.w	r3, r3, #240	; 0xf0
 8002312:	051b      	lsls	r3, r3, #20
 8002314:	0d1b      	lsrs	r3, r3, #20
 8002316:	f443 4300 	orr.w	r3, r3, #32768	; 0x8000
 800231a:	f043 03c0 	orr.w	r3, r3, #192	; 0xc0
 800231e:	f820 3022 	strh.w	r3, [r0, r2, lsl #2]
 8002322:	78cb      	ldrb	r3, [r1, #3]
 8002324:	2b01      	cmp	r3, #1
 8002326:	d00e      	beq.n	8002346 <USB_EPClearStall+0x4e>
 8002328:	780a      	ldrb	r2, [r1, #0]
 800232a:	f830 3022 	ldrh.w	r3, [r0, r2, lsl #2]
 800232e:	f423 43e0 	bic.w	r3, r3, #28672	; 0x7000
 8002332:	f023 0340 	bic.w	r3, r3, #64	; 0x40
 8002336:	f083 0320 	eor.w	r3, r3, #32
 800233a:	f443 4300 	orr.w	r3, r3, #32768	; 0x8000
 800233e:	f043 0380 	orr.w	r3, r3, #128	; 0x80
 8002342:	f820 3022 	strh.w	r3, [r0, r2, lsl #2]
 8002346:	2000      	movs	r0, #0
 8002348:	4770      	bx	lr
 800234a:	f830 3022 	ldrh.w	r3, [r0, r2, lsl #2]
 800234e:	045b      	lsls	r3, r3, #17
 8002350:	d50b      	bpl.n	800236a <USB_EPClearStall+0x72>
 8002352:	f830 3022 	ldrh.w	r3, [r0, r2, lsl #2]
 8002356:	f023 03f0 	bic.w	r3, r3, #240	; 0xf0
 800235a:	051b      	lsls	r3, r3, #20
 800235c:	0d1b      	lsrs	r3, r3, #20
 800235e:	f443 4340 	orr.w	r3, r3, #49152	; 0xc000
 8002362:	f043 0380 	orr.w	r3, r3, #128	; 0x80
 8002366:	f820 3022 	strh.w	r3, [r0, r2, lsl #2]
 800236a:	780a      	ldrb	r2, [r1, #0]
 800236c:	f830 3022 	ldrh.w	r3, [r0, r2, lsl #2]
 8002370:	f423 4380 	bic.w	r3, r3, #16384	; 0x4000
 8002374:	f023 0370 	bic.w	r3, r3, #112	; 0x70
 8002378:	f483 5340 	eor.w	r3, r3, #12288	; 0x3000
 800237c:	e7dd      	b.n	800233a <USB_EPClearStall+0x42>

0800237e <USB_SetDevAddress>:
 800237e:	b911      	cbnz	r1, 8002386 <USB_SetDevAddress+0x8>
 8002380:	2380      	movs	r3, #128	; 0x80
 8002382:	f8a0 304c 	strh.w	r3, [r0, #76]	; 0x4c
 8002386:	2000      	movs	r0, #0
 8002388:	4770      	bx	lr

0800238a <USB_DevConnect>:
 800238a:	2000      	movs	r0, #0
 800238c:	4770      	bx	lr

0800238e <USB_DevDisconnect>:
 800238e:	2000      	movs	r0, #0
 8002390:	4770      	bx	lr

08002392 <USB_ReadInterrupts>:
 8002392:	f8b0 0044 	ldrh.w	r0, [r0, #68]	; 0x44
 8002396:	4770      	bx	lr

08002398 <USB_EP0_OutStart>:
 8002398:	2000      	movs	r0, #0
 800239a:	4770      	bx	lr

0800239c <USB_WritePMA>:
 800239c:	eb00 0242 	add.w	r2, r0, r2, lsl #1
 80023a0:	3301      	adds	r3, #1
 80023a2:	f502 6280 	add.w	r2, r2, #1024	; 0x400
 80023a6:	085b      	lsrs	r3, r3, #1
 80023a8:	eb02 0383 	add.w	r3, r2, r3, lsl #2
 80023ac:	429a      	cmp	r2, r3
 80023ae:	d100      	bne.n	80023b2 <USB_WritePMA+0x16>
 80023b0:	4770      	bx	lr
 80023b2:	f831 0b02 	ldrh.w	r0, [r1], #2
 80023b6:	f822 0b04 	strh.w	r0, [r2], #4
 80023ba:	e7f7      	b.n	80023ac <USB_WritePMA+0x10>

080023bc <USB_EPStartXfer>:
 80023bc:	b5f8      	push	{r3, r4, r5, r6, r7, lr}
 80023be:	460c      	mov	r4, r1
 80023c0:	7849      	ldrb	r1, [r1, #1]
 80023c2:	4605      	mov	r5, r0
 80023c4:	2901      	cmp	r1, #1
 80023c6:	7b27      	ldrb	r7, [r4, #12]
 80023c8:	f040 8183 	bne.w	80026d2 <USB_EPStartXfer+0x316>
 80023cc:	6922      	ldr	r2, [r4, #16]
 80023ce:	69a6      	ldr	r6, [r4, #24]
 80023d0:	6961      	ldr	r1, [r4, #20]
 80023d2:	4296      	cmp	r6, r2
 80023d4:	bf28      	it	cs
 80023d6:	4616      	movcs	r6, r2
 80023d8:	b9ef      	cbnz	r7, 8002416 <USB_EPStartXfer+0x5a>
 80023da:	b2b6      	uxth	r6, r6
 80023dc:	4633      	mov	r3, r6
 80023de:	88e2      	ldrh	r2, [r4, #6]
 80023e0:	f7ff ffdc 	bl	800239c <USB_WritePMA>
 80023e4:	f8b5 1050 	ldrh.w	r1, [r5, #80]	; 0x50
 80023e8:	7822      	ldrb	r2, [r4, #0]
 80023ea:	f205 4304 	addw	r3, r5, #1028	; 0x404
 80023ee:	0112      	lsls	r2, r2, #4
 80023f0:	440b      	add	r3, r1
 80023f2:	52d6      	strh	r6, [r2, r3]
 80023f4:	7822      	ldrb	r2, [r4, #0]
 80023f6:	f835 3022 	ldrh.w	r3, [r5, r2, lsl #2]
 80023fa:	f423 43e0 	bic.w	r3, r3, #28672	; 0x7000
 80023fe:	f023 0340 	bic.w	r3, r3, #64	; 0x40
 8002402:	f083 0330 	eor.w	r3, r3, #48	; 0x30
 8002406:	2000      	movs	r0, #0
 8002408:	f443 4300 	orr.w	r3, r3, #32768	; 0x8000
 800240c:	f043 0380 	orr.w	r3, r3, #128	; 0x80
 8002410:	f825 3022 	strh.w	r3, [r5, r2, lsl #2]
 8002414:	bdf8      	pop	{r3, r4, r5, r6, r7, pc}
 8002416:	78e3      	ldrb	r3, [r4, #3]
 8002418:	7827      	ldrb	r7, [r4, #0]
 800241a:	2b02      	cmp	r3, #2
 800241c:	f040 8124 	bne.w	8002668 <USB_EPStartXfer+0x2ac>
 8002420:	6a23      	ldr	r3, [r4, #32]
 8002422:	429a      	cmp	r2, r3
 8002424:	f830 2027 	ldrh.w	r2, [r0, r7, lsl #2]
 8002428:	f422 72f8 	bic.w	r2, r2, #496	; 0x1f0
 800242c:	ea4f 5202 	mov.w	r2, r2, lsl #20
 8002430:	ea4f 5212 	mov.w	r2, r2, lsr #20
 8002434:	f080 8107 	bcs.w	8002646 <USB_EPStartXfer+0x28a>
 8002438:	f442 4201 	orr.w	r2, r2, #33024	; 0x8100
 800243c:	f042 0280 	orr.w	r2, r2, #128	; 0x80
 8002440:	f820 2027 	strh.w	r2, [r0, r7, lsl #2]
 8002444:	7822      	ldrb	r2, [r4, #0]
 8002446:	1b9b      	subs	r3, r3, r6
 8002448:	f830 0022 	ldrh.w	r0, [r0, r2, lsl #2]
 800244c:	6223      	str	r3, [r4, #32]
 800244e:	f010 0f40 	tst.w	r0, #64	; 0x40
 8002452:	b2b3      	uxth	r3, r6
 8002454:	7860      	ldrb	r0, [r4, #1]
 8002456:	d07c      	beq.n	8002552 <USB_EPStartXfer+0x196>
 8002458:	2800      	cmp	r0, #0
 800245a:	d14d      	bne.n	80024f8 <USB_EPStartXfer+0x13c>
 800245c:	f8b5 0050 	ldrh.w	r0, [r5, #80]	; 0x50
 8002460:	f205 470c 	addw	r7, r5, #1036	; 0x40c
 8002464:	4407      	add	r7, r0
 8002466:	0112      	lsls	r2, r2, #4
 8002468:	2e00      	cmp	r6, #0
 800246a:	d131      	bne.n	80024d0 <USB_EPStartXfer+0x114>
 800246c:	5ab8      	ldrh	r0, [r7, r2]
 800246e:	f420 40f8 	bic.w	r0, r0, #31744	; 0x7c00
 8002472:	0400      	lsls	r0, r0, #16
 8002474:	0c00      	lsrs	r0, r0, #16
 8002476:	52b8      	strh	r0, [r7, r2]
 8002478:	5ab8      	ldrh	r0, [r7, r2]
 800247a:	f440 4000 	orr.w	r0, r0, #32768	; 0x8000
 800247e:	52b8      	strh	r0, [r7, r2]
 8002480:	8962      	ldrh	r2, [r4, #10]
 8002482:	4628      	mov	r0, r5
 8002484:	f7ff ff8a 	bl	800239c <USB_WritePMA>
 8002488:	6a22      	ldr	r2, [r4, #32]
 800248a:	6923      	ldr	r3, [r4, #16]
 800248c:	6961      	ldr	r1, [r4, #20]
 800248e:	429a      	cmp	r2, r3
 8002490:	bf89      	itett	hi
 8002492:	1b92      	subhi	r2, r2, r6
 8002494:	2300      	movls	r3, #0
 8002496:	6222      	strhi	r2, [r4, #32]
 8002498:	4632      	movhi	r2, r6
 800249a:	7860      	ldrb	r0, [r4, #1]
 800249c:	4431      	add	r1, r6
 800249e:	bf98      	it	ls
 80024a0:	6223      	strls	r3, [r4, #32]
 80024a2:	6161      	str	r1, [r4, #20]
 80024a4:	b293      	uxth	r3, r2
 80024a6:	2800      	cmp	r0, #0
 80024a8:	d148      	bne.n	800253c <USB_EPStartXfer+0x180>
 80024aa:	f8b5 0050 	ldrh.w	r0, [r5, #80]	; 0x50
 80024ae:	7827      	ldrb	r7, [r4, #0]
 80024b0:	f205 4604 	addw	r6, r5, #1028	; 0x404
 80024b4:	013f      	lsls	r7, r7, #4
 80024b6:	4406      	add	r6, r0
 80024b8:	bb42      	cbnz	r2, 800250c <USB_EPStartXfer+0x150>
 80024ba:	5bba      	ldrh	r2, [r7, r6]
 80024bc:	f422 42f8 	bic.w	r2, r2, #31744	; 0x7c00
 80024c0:	0412      	lsls	r2, r2, #16
 80024c2:	0c12      	lsrs	r2, r2, #16
 80024c4:	53ba      	strh	r2, [r7, r6]
 80024c6:	5bba      	ldrh	r2, [r7, r6]
 80024c8:	f442 4200 	orr.w	r2, r2, #32768	; 0x8000
 80024cc:	53ba      	strh	r2, [r7, r6]
 80024ce:	e026      	b.n	800251e <USB_EPStartXfer+0x162>
 80024d0:	2e3e      	cmp	r6, #62	; 0x3e
 80024d2:	d807      	bhi.n	80024e4 <USB_EPStartXfer+0x128>
 80024d4:	0870      	lsrs	r0, r6, #1
 80024d6:	f016 0f01 	tst.w	r6, #1
 80024da:	bf18      	it	ne
 80024dc:	3001      	addne	r0, #1
 80024de:	0280      	lsls	r0, r0, #10
 80024e0:	b280      	uxth	r0, r0
 80024e2:	e7cc      	b.n	800247e <USB_EPStartXfer+0xc2>
 80024e4:	ea4f 1c56 	mov.w	ip, r6, lsr #5
 80024e8:	06f0      	lsls	r0, r6, #27
 80024ea:	4897      	ldr	r0, [pc, #604]	; (8002748 <USB_EPStartXfer+0x38c>)
 80024ec:	bf08      	it	eq
 80024ee:	f10c 3cff 	addeq.w	ip, ip, #4294967295
 80024f2:	ea40 208c 	orr.w	r0, r0, ip, lsl #10
 80024f6:	e7f3      	b.n	80024e0 <USB_EPStartXfer+0x124>
 80024f8:	2801      	cmp	r0, #1
 80024fa:	d1c1      	bne.n	8002480 <USB_EPStartXfer+0xc4>
 80024fc:	f8b5 7050 	ldrh.w	r7, [r5, #80]	; 0x50
 8002500:	f205 400c 	addw	r0, r5, #1036	; 0x40c
 8002504:	4438      	add	r0, r7
 8002506:	0112      	lsls	r2, r2, #4
 8002508:	5283      	strh	r3, [r0, r2]
 800250a:	e7b9      	b.n	8002480 <USB_EPStartXfer+0xc4>
 800250c:	2a3e      	cmp	r2, #62	; 0x3e
 800250e:	d80b      	bhi.n	8002528 <USB_EPStartXfer+0x16c>
 8002510:	0850      	lsrs	r0, r2, #1
 8002512:	07d2      	lsls	r2, r2, #31
 8002514:	bf48      	it	mi
 8002516:	3001      	addmi	r0, #1
 8002518:	0280      	lsls	r0, r0, #10
 800251a:	b280      	uxth	r0, r0
 800251c:	53b8      	strh	r0, [r7, r6]
 800251e:	8922      	ldrh	r2, [r4, #8]
 8002520:	4628      	mov	r0, r5
 8002522:	f7ff ff3b 	bl	800239c <USB_WritePMA>
 8002526:	e765      	b.n	80023f4 <USB_EPStartXfer+0x38>
 8002528:	0950      	lsrs	r0, r2, #5
 800252a:	06d2      	lsls	r2, r2, #27
 800252c:	4a86      	ldr	r2, [pc, #536]	; (8002748 <USB_EPStartXfer+0x38c>)
 800252e:	bf08      	it	eq
 8002530:	f100 30ff 	addeq.w	r0, r0, #4294967295
 8002534:	ea42 2280 	orr.w	r2, r2, r0, lsl #10
 8002538:	b292      	uxth	r2, r2
 800253a:	e7c7      	b.n	80024cc <USB_EPStartXfer+0x110>
 800253c:	2801      	cmp	r0, #1
 800253e:	d1ee      	bne.n	800251e <USB_EPStartXfer+0x162>
 8002540:	f8b5 6050 	ldrh.w	r6, [r5, #80]	; 0x50
 8002544:	7820      	ldrb	r0, [r4, #0]
 8002546:	f205 4204 	addw	r2, r5, #1028	; 0x404
 800254a:	0100      	lsls	r0, r0, #4
 800254c:	4432      	add	r2, r6
 800254e:	5283      	strh	r3, [r0, r2]
 8002550:	e7e5      	b.n	800251e <USB_EPStartXfer+0x162>
 8002552:	2800      	cmp	r0, #0
 8002554:	d14d      	bne.n	80025f2 <USB_EPStartXfer+0x236>
 8002556:	f8b5 0050 	ldrh.w	r0, [r5, #80]	; 0x50
 800255a:	f205 4704 	addw	r7, r5, #1028	; 0x404
 800255e:	4407      	add	r7, r0
 8002560:	0112      	lsls	r2, r2, #4
 8002562:	2e00      	cmp	r6, #0
 8002564:	d131      	bne.n	80025ca <USB_EPStartXfer+0x20e>
 8002566:	5ab8      	ldrh	r0, [r7, r2]
 8002568:	f420 40f8 	bic.w	r0, r0, #31744	; 0x7c00
 800256c:	0400      	lsls	r0, r0, #16
 800256e:	0c00      	lsrs	r0, r0, #16
 8002570:	52b8      	strh	r0, [r7, r2]
 8002572:	5ab8      	ldrh	r0, [r7, r2]
 8002574:	f440 4000 	orr.w	r0, r0, #32768	; 0x8000
 8002578:	52b8      	strh	r0, [r7, r2]
 800257a:	8922      	ldrh	r2, [r4, #8]
 800257c:	4628      	mov	r0, r5
 800257e:	f7ff ff0d 	bl	800239c <USB_WritePMA>
 8002582:	6a22      	ldr	r2, [r4, #32]
 8002584:	6923      	ldr	r3, [r4, #16]
 8002586:	6961      	ldr	r1, [r4, #20]
 8002588:	429a      	cmp	r2, r3
 800258a:	bf89      	itett	hi
 800258c:	1b92      	subhi	r2, r2, r6
 800258e:	2300      	movls	r3, #0
 8002590:	6222      	strhi	r2, [r4, #32]
 8002592:	4632      	movhi	r2, r6
 8002594:	7860      	ldrb	r0, [r4, #1]
 8002596:	4431      	add	r1, r6
 8002598:	bf98      	it	ls
 800259a:	6223      	strls	r3, [r4, #32]
 800259c:	6161      	str	r1, [r4, #20]
 800259e:	b293      	uxth	r3, r2
 80025a0:	2800      	cmp	r0, #0
 80025a2:	d145      	bne.n	8002630 <USB_EPStartXfer+0x274>
 80025a4:	f8b5 0050 	ldrh.w	r0, [r5, #80]	; 0x50
 80025a8:	7827      	ldrb	r7, [r4, #0]
 80025aa:	f205 460c 	addw	r6, r5, #1036	; 0x40c
 80025ae:	013f      	lsls	r7, r7, #4
 80025b0:	4406      	add	r6, r0
 80025b2:	bb42      	cbnz	r2, 8002606 <USB_EPStartXfer+0x24a>
 80025b4:	5bba      	ldrh	r2, [r7, r6]
 80025b6:	f422 42f8 	bic.w	r2, r2, #31744	; 0x7c00
 80025ba:	0412      	lsls	r2, r2, #16
 80025bc:	0c12      	lsrs	r2, r2, #16
 80025be:	53ba      	strh	r2, [r7, r6]
 80025c0:	5bba      	ldrh	r2, [r7, r6]
 80025c2:	f442 4200 	orr.w	r2, r2, #32768	; 0x8000
 80025c6:	53ba      	strh	r2, [r7, r6]
 80025c8:	e026      	b.n	8002618 <USB_EPStartXfer+0x25c>
 80025ca:	2e3e      	cmp	r6, #62	; 0x3e
 80025cc:	d807      	bhi.n	80025de <USB_EPStartXfer+0x222>
 80025ce:	0870      	lsrs	r0, r6, #1
 80025d0:	f016 0f01 	tst.w	r6, #1
 80025d4:	bf18      	it	ne
 80025d6:	3001      	addne	r0, #1
 80025d8:	0280      	lsls	r0, r0, #10
 80025da:	b280      	uxth	r0, r0
 80025dc:	e7cc      	b.n	8002578 <USB_EPStartXfer+0x1bc>
 80025de:	ea4f 1c56 	mov.w	ip, r6, lsr #5
 80025e2:	06f0      	lsls	r0, r6, #27
 80025e4:	4858      	ldr	r0, [pc, #352]	; (8002748 <USB_EPStartXfer+0x38c>)
 80025e6:	bf08      	it	eq
 80025e8:	f10c 3cff 	addeq.w	ip, ip, #4294967295
 80025ec:	ea40 208c 	orr.w	r0, r0, ip, lsl #10
 80025f0:	e7f3      	b.n	80025da <USB_EPStartXfer+0x21e>
 80025f2:	2801      	cmp	r0, #1
 80025f4:	d1c1      	bne.n	800257a <USB_EPStartXfer+0x1be>
 80025f6:	f8b5 7050 	ldrh.w	r7, [r5, #80]	; 0x50
 80025fa:	f205 4004 	addw	r0, r5, #1028	; 0x404
 80025fe:	4438      	add	r0, r7
 8002600:	0112      	lsls	r2, r2, #4
 8002602:	5283      	strh	r3, [r0, r2]
 8002604:	e7b9      	b.n	800257a <USB_EPStartXfer+0x1be>
 8002606:	2a3e      	cmp	r2, #62	; 0x3e
 8002608:	d808      	bhi.n	800261c <USB_EPStartXfer+0x260>
 800260a:	0850      	lsrs	r0, r2, #1
 800260c:	07d2      	lsls	r2, r2, #31
 800260e:	bf48      	it	mi
 8002610:	3001      	addmi	r0, #1
 8002612:	0280      	lsls	r0, r0, #10
 8002614:	b280      	uxth	r0, r0
 8002616:	53b8      	strh	r0, [r7, r6]
 8002618:	8962      	ldrh	r2, [r4, #10]
 800261a:	e781      	b.n	8002520 <USB_EPStartXfer+0x164>
 800261c:	0950      	lsrs	r0, r2, #5
 800261e:	06d2      	lsls	r2, r2, #27
 8002620:	4a49      	ldr	r2, [pc, #292]	; (8002748 <USB_EPStartXfer+0x38c>)
 8002622:	bf08      	it	eq
 8002624:	f100 30ff 	addeq.w	r0, r0, #4294967295
 8002628:	ea42 2280 	orr.w	r2, r2, r0, lsl #10
 800262c:	b292      	uxth	r2, r2
 800262e:	e7ca      	b.n	80025c6 <USB_EPStartXfer+0x20a>
 8002630:	2801      	cmp	r0, #1
 8002632:	d1f1      	bne.n	8002618 <USB_EPStartXfer+0x25c>
 8002634:	f8b5 6050 	ldrh.w	r6, [r5, #80]	; 0x50
 8002638:	7820      	ldrb	r0, [r4, #0]
 800263a:	f205 420c 	addw	r2, r5, #1036	; 0x40c
 800263e:	0100      	lsls	r0, r0, #4
 8002640:	4432      	add	r2, r6
 8002642:	5283      	strh	r3, [r0, r2]
 8002644:	e7e8      	b.n	8002618 <USB_EPStartXfer+0x25c>
 8002646:	f442 4200 	orr.w	r2, r2, #32768	; 0x8000
 800264a:	f042 0280 	orr.w	r2, r2, #128	; 0x80
 800264e:	f820 2027 	strh.w	r2, [r0, r7, lsl #2]
 8002652:	f8b0 7050 	ldrh.w	r7, [r0, #80]	; 0x50
 8002656:	7826      	ldrb	r6, [r4, #0]
 8002658:	f200 4204 	addw	r2, r0, #1028	; 0x404
 800265c:	443a      	add	r2, r7
 800265e:	0136      	lsls	r6, r6, #4
 8002660:	b29b      	uxth	r3, r3
 8002662:	52b3      	strh	r3, [r6, r2]
 8002664:	8922      	ldrh	r2, [r4, #8]
 8002666:	e75c      	b.n	8002522 <USB_EPStartXfer+0x166>
 8002668:	f830 2027 	ldrh.w	r2, [r0, r7, lsl #2]
 800266c:	f8b0 0050 	ldrh.w	r0, [r0, #80]	; 0x50
 8002670:	0652      	lsls	r2, r2, #25
 8002672:	bf4b      	itete	mi
 8002674:	f205 420c 	addwmi	r2, r5, #1036	; 0x40c
 8002678:	f205 4204 	addwpl	r2, r5, #1028	; 0x404
 800267c:	1812      	addmi	r2, r2, r0
 800267e:	1812      	addpl	r2, r2, r0
 8002680:	b2b3      	uxth	r3, r6
 8002682:	ea4f 1707 	mov.w	r7, r7, lsl #4
 8002686:	bf4b      	itete	mi
 8002688:	53d3      	strhmi	r3, [r2, r7]
 800268a:	53d3      	strhpl	r3, [r2, r7]
 800268c:	8962      	ldrhmi	r2, [r4, #10]
 800268e:	8922      	ldrhpl	r2, [r4, #8]
 8002690:	4628      	mov	r0, r5
 8002692:	f7ff fe83 	bl	800239c <USB_WritePMA>
 8002696:	7863      	ldrb	r3, [r4, #1]
 8002698:	7822      	ldrb	r2, [r4, #0]
 800269a:	b963      	cbnz	r3, 80026b6 <USB_EPStartXfer+0x2fa>
 800269c:	f835 3022 	ldrh.w	r3, [r5, r2, lsl #2]
 80026a0:	f023 03f0 	bic.w	r3, r3, #240	; 0xf0
 80026a4:	051b      	lsls	r3, r3, #20
 80026a6:	0d1b      	lsrs	r3, r3, #20
 80026a8:	f443 4300 	orr.w	r3, r3, #32768	; 0x8000
 80026ac:	f043 03c0 	orr.w	r3, r3, #192	; 0xc0
 80026b0:	f825 3022 	strh.w	r3, [r5, r2, lsl #2]
 80026b4:	e69e      	b.n	80023f4 <USB_EPStartXfer+0x38>
 80026b6:	2b01      	cmp	r3, #1
 80026b8:	f47f ae9c 	bne.w	80023f4 <USB_EPStartXfer+0x38>
 80026bc:	f835 3022 	ldrh.w	r3, [r5, r2, lsl #2]
 80026c0:	f023 03f0 	bic.w	r3, r3, #240	; 0xf0
 80026c4:	051b      	lsls	r3, r3, #20
 80026c6:	0d1b      	lsrs	r3, r3, #20
 80026c8:	f443 4340 	orr.w	r3, r3, #49152	; 0xc000
 80026cc:	f043 0380 	orr.w	r3, r3, #128	; 0x80
 80026d0:	e7ee      	b.n	80026b0 <USB_EPStartXfer+0x2f4>
 80026d2:	2f00      	cmp	r7, #0
 80026d4:	d13a      	bne.n	800274c <USB_EPStartXfer+0x390>
 80026d6:	69a2      	ldr	r2, [r4, #24]
 80026d8:	6923      	ldr	r3, [r4, #16]
 80026da:	f205 410c 	addw	r1, r5, #1036	; 0x40c
 80026de:	429a      	cmp	r2, r3
 80026e0:	bf92      	itee	ls
 80026e2:	4613      	movls	r3, r2
 80026e4:	1ad2      	subhi	r2, r2, r3
 80026e6:	61a2      	strhi	r2, [r4, #24]
 80026e8:	f8b0 2050 	ldrh.w	r2, [r0, #80]	; 0x50
 80026ec:	7820      	ldrb	r0, [r4, #0]
 80026ee:	bf98      	it	ls
 80026f0:	61a7      	strls	r7, [r4, #24]
 80026f2:	0100      	lsls	r0, r0, #4
 80026f4:	4411      	add	r1, r2
 80026f6:	b953      	cbnz	r3, 800270e <USB_EPStartXfer+0x352>
 80026f8:	5a43      	ldrh	r3, [r0, r1]
 80026fa:	f423 43f8 	bic.w	r3, r3, #31744	; 0x7c00
 80026fe:	041b      	lsls	r3, r3, #16
 8002700:	0c1b      	lsrs	r3, r3, #16
 8002702:	5243      	strh	r3, [r0, r1]
 8002704:	5a43      	ldrh	r3, [r0, r1]
 8002706:	f443 4300 	orr.w	r3, r3, #32768	; 0x8000
 800270a:	5243      	strh	r3, [r0, r1]
 800270c:	e008      	b.n	8002720 <USB_EPStartXfer+0x364>
 800270e:	2b3e      	cmp	r3, #62	; 0x3e
 8002710:	d810      	bhi.n	8002734 <USB_EPStartXfer+0x378>
 8002712:	085a      	lsrs	r2, r3, #1
 8002714:	07df      	lsls	r7, r3, #31
 8002716:	bf48      	it	mi
 8002718:	3201      	addmi	r2, #1
 800271a:	0292      	lsls	r2, r2, #10
 800271c:	b292      	uxth	r2, r2
 800271e:	5242      	strh	r2, [r0, r1]
 8002720:	7822      	ldrb	r2, [r4, #0]
 8002722:	f835 3022 	ldrh.w	r3, [r5, r2, lsl #2]
 8002726:	f423 4380 	bic.w	r3, r3, #16384	; 0x4000
 800272a:	f023 0370 	bic.w	r3, r3, #112	; 0x70
 800272e:	f483 5340 	eor.w	r3, r3, #12288	; 0x3000
 8002732:	e668      	b.n	8002406 <USB_EPStartXfer+0x4a>
 8002734:	095a      	lsrs	r2, r3, #5
 8002736:	06de      	lsls	r6, r3, #27
 8002738:	4b03      	ldr	r3, [pc, #12]	; (8002748 <USB_EPStartXfer+0x38c>)
 800273a:	bf08      	it	eq
 800273c:	f102 32ff 	addeq.w	r2, r2, #4294967295
 8002740:	ea43 2382 	orr.w	r3, r3, r2, lsl #10
 8002744:	b29b      	uxth	r3, r3
 8002746:	e7e0      	b.n	800270a <USB_EPStartXfer+0x34e>
 8002748:	ffff8000 	.word	0xffff8000
 800274c:	78e3      	ldrb	r3, [r4, #3]
 800274e:	2b02      	cmp	r3, #2
 8002750:	d174      	bne.n	800283c <USB_EPStartXfer+0x480>
 8002752:	b999      	cbnz	r1, 800277c <USB_EPStartXfer+0x3c0>
 8002754:	f8b0 3050 	ldrh.w	r3, [r0, #80]	; 0x50
 8002758:	f200 4204 	addw	r2, r0, #1028	; 0x404
 800275c:	7821      	ldrb	r1, [r4, #0]
 800275e:	6920      	ldr	r0, [r4, #16]
 8002760:	0109      	lsls	r1, r1, #4
 8002762:	441a      	add	r2, r3
 8002764:	2800      	cmp	r0, #0
 8002766:	d13a      	bne.n	80027de <USB_EPStartXfer+0x422>
 8002768:	5a8b      	ldrh	r3, [r1, r2]
 800276a:	f423 43f8 	bic.w	r3, r3, #31744	; 0x7c00
 800276e:	041b      	lsls	r3, r3, #16
 8002770:	0c1b      	lsrs	r3, r3, #16
 8002772:	528b      	strh	r3, [r1, r2]
 8002774:	5a8b      	ldrh	r3, [r1, r2]
 8002776:	f443 4300 	orr.w	r3, r3, #32768	; 0x8000
 800277a:	528b      	strh	r3, [r1, r2]
 800277c:	7862      	ldrb	r2, [r4, #1]
 800277e:	7823      	ldrb	r3, [r4, #0]
 8002780:	2a00      	cmp	r2, #0
 8002782:	d150      	bne.n	8002826 <USB_EPStartXfer+0x46a>
 8002784:	f8b5 2050 	ldrh.w	r2, [r5, #80]	; 0x50
 8002788:	6920      	ldr	r0, [r4, #16]
 800278a:	f205 410c 	addw	r1, r5, #1036	; 0x40c
 800278e:	4411      	add	r1, r2
 8002790:	011b      	lsls	r3, r3, #4
 8002792:	2800      	cmp	r0, #0
 8002794:	d135      	bne.n	8002802 <USB_EPStartXfer+0x446>
 8002796:	5aca      	ldrh	r2, [r1, r3]
 8002798:	f422 42f8 	bic.w	r2, r2, #31744	; 0x7c00
 800279c:	0412      	lsls	r2, r2, #16
 800279e:	0c12      	lsrs	r2, r2, #16
 80027a0:	52ca      	strh	r2, [r1, r3]
 80027a2:	5aca      	ldrh	r2, [r1, r3]
 80027a4:	f442 4200 	orr.w	r2, r2, #32768	; 0x8000
 80027a8:	52ca      	strh	r2, [r1, r3]
 80027aa:	69e3      	ldr	r3, [r4, #28]
 80027ac:	2b00      	cmp	r3, #0
 80027ae:	d0b7      	beq.n	8002720 <USB_EPStartXfer+0x364>
 80027b0:	f244 0140 	movw	r1, #16448	; 0x4040
 80027b4:	7822      	ldrb	r2, [r4, #0]
 80027b6:	f835 3022 	ldrh.w	r3, [r5, r2, lsl #2]
 80027ba:	400b      	ands	r3, r1
 80027bc:	428b      	cmp	r3, r1
 80027be:	d001      	beq.n	80027c4 <USB_EPStartXfer+0x408>
 80027c0:	2b00      	cmp	r3, #0
 80027c2:	d1ad      	bne.n	8002720 <USB_EPStartXfer+0x364>
 80027c4:	f835 3022 	ldrh.w	r3, [r5, r2, lsl #2]
 80027c8:	f023 03f0 	bic.w	r3, r3, #240	; 0xf0
 80027cc:	051b      	lsls	r3, r3, #20
 80027ce:	0d1b      	lsrs	r3, r3, #20
 80027d0:	f443 4300 	orr.w	r3, r3, #32768	; 0x8000
 80027d4:	f043 03c0 	orr.w	r3, r3, #192	; 0xc0
 80027d8:	f825 3022 	strh.w	r3, [r5, r2, lsl #2]
 80027dc:	e7a0      	b.n	8002720 <USB_EPStartXfer+0x364>
 80027de:	283e      	cmp	r0, #62	; 0x3e
 80027e0:	d806      	bhi.n	80027f0 <USB_EPStartXfer+0x434>
 80027e2:	0843      	lsrs	r3, r0, #1
 80027e4:	07c0      	lsls	r0, r0, #31
 80027e6:	bf48      	it	mi
 80027e8:	3301      	addmi	r3, #1
 80027ea:	029b      	lsls	r3, r3, #10
 80027ec:	b29b      	uxth	r3, r3
 80027ee:	e7c4      	b.n	800277a <USB_EPStartXfer+0x3be>
 80027f0:	0946      	lsrs	r6, r0, #5
 80027f2:	06c7      	lsls	r7, r0, #27
 80027f4:	4b46      	ldr	r3, [pc, #280]	; (8002910 <USB_EPStartXfer+0x554>)
 80027f6:	bf08      	it	eq
 80027f8:	f106 36ff 	addeq.w	r6, r6, #4294967295
 80027fc:	ea43 2386 	orr.w	r3, r3, r6, lsl #10
 8002800:	e7f4      	b.n	80027ec <USB_EPStartXfer+0x430>
 8002802:	283e      	cmp	r0, #62	; 0x3e
 8002804:	d806      	bhi.n	8002814 <USB_EPStartXfer+0x458>
 8002806:	0842      	lsrs	r2, r0, #1
 8002808:	07c0      	lsls	r0, r0, #31
 800280a:	bf48      	it	mi
 800280c:	3201      	addmi	r2, #1
 800280e:	0292      	lsls	r2, r2, #10
 8002810:	b292      	uxth	r2, r2
 8002812:	e7c9      	b.n	80027a8 <USB_EPStartXfer+0x3ec>
 8002814:	0946      	lsrs	r6, r0, #5
 8002816:	06c7      	lsls	r7, r0, #27
 8002818:	4a3d      	ldr	r2, [pc, #244]	; (8002910 <USB_EPStartXfer+0x554>)
 800281a:	bf08      	it	eq
 800281c:	f106 36ff 	addeq.w	r6, r6, #4294967295
 8002820:	ea42 2286 	orr.w	r2, r2, r6, lsl #10
 8002824:	e7f4      	b.n	8002810 <USB_EPStartXfer+0x454>
 8002826:	2a01      	cmp	r2, #1
 8002828:	d1bf      	bne.n	80027aa <USB_EPStartXfer+0x3ee>
 800282a:	f8b5 1050 	ldrh.w	r1, [r5, #80]	; 0x50
 800282e:	f205 420c 	addw	r2, r5, #1036	; 0x40c
 8002832:	440a      	add	r2, r1
 8002834:	8a21      	ldrh	r1, [r4, #16]
 8002836:	011b      	lsls	r3, r3, #4
 8002838:	52d1      	strh	r1, [r2, r3]
 800283a:	e7b6      	b.n	80027aa <USB_EPStartXfer+0x3ee>
 800283c:	2b01      	cmp	r3, #1
 800283e:	d164      	bne.n	800290a <USB_EPStartXfer+0x54e>
 8002840:	69a2      	ldr	r2, [r4, #24]
 8002842:	6923      	ldr	r3, [r4, #16]
 8002844:	429a      	cmp	r2, r3
 8002846:	bf95      	itete	ls
 8002848:	2300      	movls	r3, #0
 800284a:	1ad2      	subhi	r2, r2, r3
 800284c:	61a3      	strls	r3, [r4, #24]
 800284e:	61a2      	strhi	r2, [r4, #24]
 8002850:	bf98      	it	ls
 8002852:	4613      	movls	r3, r2
 8002854:	b989      	cbnz	r1, 800287a <USB_EPStartXfer+0x4be>
 8002856:	f8b0 2050 	ldrh.w	r2, [r0, #80]	; 0x50
 800285a:	7820      	ldrb	r0, [r4, #0]
 800285c:	f205 4104 	addw	r1, r5, #1028	; 0x404
 8002860:	0100      	lsls	r0, r0, #4
 8002862:	4411      	add	r1, r2
 8002864:	b9fb      	cbnz	r3, 80028a6 <USB_EPStartXfer+0x4ea>
 8002866:	5a42      	ldrh	r2, [r0, r1]
 8002868:	f422 42f8 	bic.w	r2, r2, #31744	; 0x7c00
 800286c:	0412      	lsls	r2, r2, #16
 800286e:	0c12      	lsrs	r2, r2, #16
 8002870:	5242      	strh	r2, [r0, r1]
 8002872:	5a42      	ldrh	r2, [r0, r1]
 8002874:	f442 4200 	orr.w	r2, r2, #32768	; 0x8000
 8002878:	5242      	strh	r2, [r0, r1]
 800287a:	7861      	ldrb	r1, [r4, #1]
 800287c:	7822      	ldrb	r2, [r4, #0]
 800287e:	2900      	cmp	r1, #0
 8002880:	d137      	bne.n	80028f2 <USB_EPStartXfer+0x536>
 8002882:	f8b5 1050 	ldrh.w	r1, [r5, #80]	; 0x50
 8002886:	f205 400c 	addw	r0, r5, #1036	; 0x40c
 800288a:	4408      	add	r0, r1
 800288c:	0112      	lsls	r2, r2, #4
 800288e:	b9e3      	cbnz	r3, 80028ca <USB_EPStartXfer+0x50e>
 8002890:	5a83      	ldrh	r3, [r0, r2]
 8002892:	f423 43f8 	bic.w	r3, r3, #31744	; 0x7c00
 8002896:	041b      	lsls	r3, r3, #16
 8002898:	0c1b      	lsrs	r3, r3, #16
 800289a:	5283      	strh	r3, [r0, r2]
 800289c:	5a83      	ldrh	r3, [r0, r2]
 800289e:	f443 4300 	orr.w	r3, r3, #32768	; 0x8000
 80028a2:	5283      	strh	r3, [r0, r2]
 80028a4:	e73c      	b.n	8002720 <USB_EPStartXfer+0x364>
 80028a6:	2b3e      	cmp	r3, #62	; 0x3e
 80028a8:	d806      	bhi.n	80028b8 <USB_EPStartXfer+0x4fc>
 80028aa:	085a      	lsrs	r2, r3, #1
 80028ac:	07de      	lsls	r6, r3, #31
 80028ae:	bf48      	it	mi
 80028b0:	3201      	addmi	r2, #1
 80028b2:	0292      	lsls	r2, r2, #10
 80028b4:	b292      	uxth	r2, r2
 80028b6:	e7df      	b.n	8002878 <USB_EPStartXfer+0x4bc>
 80028b8:	095e      	lsrs	r6, r3, #5
 80028ba:	06df      	lsls	r7, r3, #27
 80028bc:	4a14      	ldr	r2, [pc, #80]	; (8002910 <USB_EPStartXfer+0x554>)
 80028be:	bf08      	it	eq
 80028c0:	f106 36ff 	addeq.w	r6, r6, #4294967295
 80028c4:	ea42 2286 	orr.w	r2, r2, r6, lsl #10
 80028c8:	e7f4      	b.n	80028b4 <USB_EPStartXfer+0x4f8>
 80028ca:	2b3e      	cmp	r3, #62	; 0x3e
 80028cc:	d807      	bhi.n	80028de <USB_EPStartXfer+0x522>
 80028ce:	0859      	lsrs	r1, r3, #1
 80028d0:	07de      	lsls	r6, r3, #31
 80028d2:	bf48      	it	mi
 80028d4:	3101      	addmi	r1, #1
 80028d6:	0289      	lsls	r1, r1, #10
 80028d8:	b289      	uxth	r1, r1
 80028da:	5281      	strh	r1, [r0, r2]
 80028dc:	e720      	b.n	8002720 <USB_EPStartXfer+0x364>
 80028de:	0959      	lsrs	r1, r3, #5
 80028e0:	06db      	lsls	r3, r3, #27
 80028e2:	4b0b      	ldr	r3, [pc, #44]	; (8002910 <USB_EPStartXfer+0x554>)
 80028e4:	bf08      	it	eq
 80028e6:	f101 31ff 	addeq.w	r1, r1, #4294967295
 80028ea:	ea43 2381 	orr.w	r3, r3, r1, lsl #10
 80028ee:	b29b      	uxth	r3, r3
 80028f0:	e7d7      	b.n	80028a2 <USB_EPStartXfer+0x4e6>
 80028f2:	2901      	cmp	r1, #1
 80028f4:	f47f af14 	bne.w	8002720 <USB_EPStartXfer+0x364>
 80028f8:	f8b5 0050 	ldrh.w	r0, [r5, #80]	; 0x50
 80028fc:	f205 410c 	addw	r1, r5, #1036	; 0x40c
 8002900:	4401      	add	r1, r0
 8002902:	0112      	lsls	r2, r2, #4
 8002904:	b29b      	uxth	r3, r3
 8002906:	528b      	strh	r3, [r1, r2]
 8002908:	e70a      	b.n	8002720 <USB_EPStartXfer+0x364>
 800290a:	2001      	movs	r0, #1
 800290c:	e582      	b.n	8002414 <USB_EPStartXfer+0x58>
 800290e:	bf00      	nop
 8002910:	ffff8000 	.word	0xffff8000

08002914 <USB_ReadPMA>:
 8002914:	eb00 0242 	add.w	r2, r0, r2, lsl #1
 8002918:	b5f0      	push	{r4, r5, r6, r7, lr}
 800291a:	f502 6280 	add.w	r2, r2, #1024	; 0x400
 800291e:	085d      	lsrs	r5, r3, #1
 8002920:	4608      	mov	r0, r1
 8002922:	4617      	mov	r7, r2
 8002924:	462e      	mov	r6, r5
 8002926:	3002      	adds	r0, #2
 8002928:	b936      	cbnz	r6, 8002938 <USB_ReadPMA+0x24>
 800292a:	07db      	lsls	r3, r3, #31
 800292c:	bf44      	itt	mi
 800292e:	f832 3025 	ldrhmi.w	r3, [r2, r5, lsl #2]
 8002932:	f801 3015 	strbmi.w	r3, [r1, r5, lsl #1]
 8002936:	bdf0      	pop	{r4, r5, r6, r7, pc}
 8002938:	f837 4b04 	ldrh.w	r4, [r7], #4
 800293c:	3e01      	subs	r6, #1
 800293e:	b2a4      	uxth	r4, r4
 8002940:	f800 4c02 	strb.w	r4, [r0, #-2]
 8002944:	0a24      	lsrs	r4, r4, #8
 8002946:	f800 4c01 	strb.w	r4, [r0, #-1]
 800294a:	e7ec      	b.n	8002926 <USB_ReadPMA+0x12>

0800294c <USBD_CDC_EP0_RxReady>:
 800294c:	f8d0 32bc 	ldr.w	r3, [r0, #700]	; 0x2bc
 8002950:	b510      	push	{r4, lr}
 8002952:	b16b      	cbz	r3, 8002970 <USBD_CDC_EP0_RxReady+0x24>
 8002954:	f8d0 42b8 	ldr.w	r4, [r0, #696]	; 0x2b8
 8002958:	f894 0200 	ldrb.w	r0, [r4, #512]	; 0x200
 800295c:	28ff      	cmp	r0, #255	; 0xff
 800295e:	d007      	beq.n	8002970 <USBD_CDC_EP0_RxReady+0x24>
 8002960:	689b      	ldr	r3, [r3, #8]
 8002962:	f894 2201 	ldrb.w	r2, [r4, #513]	; 0x201
 8002966:	4621      	mov	r1, r4
 8002968:	4798      	blx	r3
 800296a:	23ff      	movs	r3, #255	; 0xff
 800296c:	f884 3200 	strb.w	r3, [r4, #512]	; 0x200
 8002970:	2000      	movs	r0, #0
 8002972:	bd10      	pop	{r4, pc}

08002974 <USBD_CDC_GetFSCfgDesc>:
 8002974:	2343      	movs	r3, #67	; 0x43
 8002976:	8003      	strh	r3, [r0, #0]
 8002978:	4800      	ldr	r0, [pc, #0]	; (800297c <USBD_CDC_GetFSCfgDesc+0x8>)
 800297a:	4770      	bx	lr
 800297c:	20000044 	.word	0x20000044

08002980 <USBD_CDC_GetHSCfgDesc>:
 8002980:	2343      	movs	r3, #67	; 0x43
 8002982:	8003      	strh	r3, [r0, #0]
 8002984:	4800      	ldr	r0, [pc, #0]	; (8002988 <USBD_CDC_GetHSCfgDesc+0x8>)
 8002986:	4770      	bx	lr
 8002988:	20000088 	.word	0x20000088

0800298c <USBD_CDC_GetOtherSpeedCfgDesc>:
 800298c:	2343      	movs	r3, #67	; 0x43
 800298e:	8003      	strh	r3, [r0, #0]
 8002990:	4800      	ldr	r0, [pc, #0]	; (8002994 <USBD_CDC_GetOtherSpeedCfgDesc+0x8>)
 8002992:	4770      	bx	lr
 8002994:	200000d8 	.word	0x200000d8

08002998 <USBD_CDC_GetDeviceQualifierDescriptor>:
 8002998:	230a      	movs	r3, #10
 800299a:	8003      	strh	r3, [r0, #0]
 800299c:	4800      	ldr	r0, [pc, #0]	; (80029a0 <USBD_CDC_GetDeviceQualifierDescriptor+0x8>)
 800299e:	4770      	bx	lr
 80029a0:	200000cc 	.word	0x200000cc

080029a4 <USBD_CDC_DataOut>:
 80029a4:	b538      	push	{r3, r4, r5, lr}
 80029a6:	4605      	mov	r5, r0
 80029a8:	f8d0 42b8 	ldr.w	r4, [r0, #696]	; 0x2b8
 80029ac:	f002 fd4a 	bl	8005444 <USBD_LL_GetRxDataSize>
 80029b0:	f8d5 32b8 	ldr.w	r3, [r5, #696]	; 0x2b8
 80029b4:	f8c4 020c 	str.w	r0, [r4, #524]	; 0x20c
 80029b8:	b14b      	cbz	r3, 80029ce <USBD_CDC_DataOut+0x2a>
 80029ba:	f8d5 32bc 	ldr.w	r3, [r5, #700]	; 0x2bc
 80029be:	f504 7103 	add.w	r1, r4, #524	; 0x20c
 80029c2:	68db      	ldr	r3, [r3, #12]
 80029c4:	f8d4 0204 	ldr.w	r0, [r4, #516]	; 0x204
 80029c8:	4798      	blx	r3
 80029ca:	2000      	movs	r0, #0
 80029cc:	bd38      	pop	{r3, r4, r5, pc}
 80029ce:	2002      	movs	r0, #2
 80029d0:	e7fc      	b.n	80029cc <USBD_CDC_DataOut+0x28>

080029d2 <USBD_CDC_DataIn>:
 80029d2:	b5f8      	push	{r3, r4, r5, r6, r7, lr}
 80029d4:	f8d0 62b8 	ldr.w	r6, [r0, #696]	; 0x2b8
 80029d8:	b1d6      	cbz	r6, 8002a10 <USBD_CDC_DataIn+0x3e>
 80029da:	2314      	movs	r3, #20
 80029dc:	fb03 0301 	mla	r3, r3, r1, r0
 80029e0:	69dd      	ldr	r5, [r3, #28]
 80029e2:	b18d      	cbz	r5, 8002a08 <USBD_CDC_DataIn+0x36>
 80029e4:	2728      	movs	r7, #40	; 0x28
 80029e6:	f8d0 42c0 	ldr.w	r4, [r0, #704]	; 0x2c0
 80029ea:	fb07 4201 	mla	r2, r7, r1, r4
 80029ee:	6b92      	ldr	r2, [r2, #56]	; 0x38
 80029f0:	fbb5 f4f2 	udiv	r4, r5, r2
 80029f4:	fb02 5414 	mls	r4, r2, r4, r5
 80029f8:	b934      	cbnz	r4, 8002a08 <USBD_CDC_DataIn+0x36>
 80029fa:	61dc      	str	r4, [r3, #28]
 80029fc:	4622      	mov	r2, r4
 80029fe:	4623      	mov	r3, r4
 8002a00:	f002 fd04 	bl	800540c <USBD_LL_Transmit>
 8002a04:	4620      	mov	r0, r4
 8002a06:	bdf8      	pop	{r3, r4, r5, r6, r7, pc}
 8002a08:	2000      	movs	r0, #0
 8002a0a:	f8c6 0214 	str.w	r0, [r6, #532]	; 0x214
 8002a0e:	e7fa      	b.n	8002a06 <USBD_CDC_DataIn+0x34>
 8002a10:	2002      	movs	r0, #2
 8002a12:	e7f8      	b.n	8002a06 <USBD_CDC_DataIn+0x34>

08002a14 <USBD_CDC_Setup>:
 8002a14:	e92d 43f7 	stmdb	sp!, {r0, r1, r2, r4, r5, r6, r7, r8, r9, lr}
 8002a18:	f04f 0800 	mov.w	r8, #0
 8002a1c:	780a      	ldrb	r2, [r1, #0]
 8002a1e:	4605      	mov	r5, r0
 8002a20:	f012 0460 	ands.w	r4, r2, #96	; 0x60
 8002a24:	460e      	mov	r6, r1
 8002a26:	f8d0 72b8 	ldr.w	r7, [r0, #696]	; 0x2b8
 8002a2a:	f88d 8005 	strb.w	r8, [sp, #5]
 8002a2e:	f8ad 8006 	strh.w	r8, [sp, #6]
 8002a32:	d028      	beq.n	8002a86 <USBD_CDC_Setup+0x72>
 8002a34:	2c20      	cmp	r4, #32
 8002a36:	d145      	bne.n	8002ac4 <USBD_CDC_Setup+0xb0>
 8002a38:	88cc      	ldrh	r4, [r1, #6]
 8002a3a:	784b      	ldrb	r3, [r1, #1]
 8002a3c:	b1e4      	cbz	r4, 8002a78 <USBD_CDC_Setup+0x64>
 8002a3e:	0612      	lsls	r2, r2, #24
 8002a40:	d511      	bpl.n	8002a66 <USBD_CDC_Setup+0x52>
 8002a42:	f8d0 22bc 	ldr.w	r2, [r0, #700]	; 0x2bc
 8002a46:	4639      	mov	r1, r7
 8002a48:	f8d2 9008 	ldr.w	r9, [r2, #8]
 8002a4c:	4618      	mov	r0, r3
 8002a4e:	4622      	mov	r2, r4
 8002a50:	47c8      	blx	r9
 8002a52:	88f2      	ldrh	r2, [r6, #6]
 8002a54:	4639      	mov	r1, r7
 8002a56:	4628      	mov	r0, r5
 8002a58:	f000 fc2d 	bl	80032b6 <USBD_CtlSendData>
 8002a5c:	4644      	mov	r4, r8
 8002a5e:	4620      	mov	r0, r4
 8002a60:	b003      	add	sp, #12
 8002a62:	e8bd 83f0 	ldmia.w	sp!, {r4, r5, r6, r7, r8, r9, pc}
 8002a66:	f887 3200 	strb.w	r3, [r7, #512]	; 0x200
 8002a6a:	f887 4201 	strb.w	r4, [r7, #513]	; 0x201
 8002a6e:	4622      	mov	r2, r4
 8002a70:	4639      	mov	r1, r7
 8002a72:	f000 fc35 	bl	80032e0 <USBD_CtlPrepareRx>
 8002a76:	e7f1      	b.n	8002a5c <USBD_CDC_Setup+0x48>
 8002a78:	f8d0 22bc 	ldr.w	r2, [r0, #700]	; 0x2bc
 8002a7c:	4618      	mov	r0, r3
 8002a7e:	6895      	ldr	r5, [r2, #8]
 8002a80:	4622      	mov	r2, r4
 8002a82:	47a8      	blx	r5
 8002a84:	e7eb      	b.n	8002a5e <USBD_CDC_Setup+0x4a>
 8002a86:	784f      	ldrb	r7, [r1, #1]
 8002a88:	2f0a      	cmp	r7, #10
 8002a8a:	d00d      	beq.n	8002aa8 <USBD_CDC_Setup+0x94>
 8002a8c:	2f0b      	cmp	r7, #11
 8002a8e:	d015      	beq.n	8002abc <USBD_CDC_Setup+0xa8>
 8002a90:	b9c7      	cbnz	r7, 8002ac4 <USBD_CDC_Setup+0xb0>
 8002a92:	f890 329c 	ldrb.w	r3, [r0, #668]	; 0x29c
 8002a96:	2b03      	cmp	r3, #3
 8002a98:	d114      	bne.n	8002ac4 <USBD_CDC_Setup+0xb0>
 8002a9a:	2202      	movs	r2, #2
 8002a9c:	f10d 0106 	add.w	r1, sp, #6
 8002aa0:	f000 fc09 	bl	80032b6 <USBD_CtlSendData>
 8002aa4:	463c      	mov	r4, r7
 8002aa6:	e7da      	b.n	8002a5e <USBD_CDC_Setup+0x4a>
 8002aa8:	f890 329c 	ldrb.w	r3, [r0, #668]	; 0x29c
 8002aac:	2b03      	cmp	r3, #3
 8002aae:	d109      	bne.n	8002ac4 <USBD_CDC_Setup+0xb0>
 8002ab0:	2201      	movs	r2, #1
 8002ab2:	f10d 0105 	add.w	r1, sp, #5
 8002ab6:	f000 fbfe 	bl	80032b6 <USBD_CtlSendData>
 8002aba:	e7d0      	b.n	8002a5e <USBD_CDC_Setup+0x4a>
 8002abc:	f890 329c 	ldrb.w	r3, [r0, #668]	; 0x29c
 8002ac0:	2b03      	cmp	r3, #3
 8002ac2:	d0cc      	beq.n	8002a5e <USBD_CDC_Setup+0x4a>
 8002ac4:	4631      	mov	r1, r6
 8002ac6:	4628      	mov	r0, r5
 8002ac8:	f000 fbce 	bl	8003268 <USBD_CtlError>
 8002acc:	2402      	movs	r4, #2
 8002ace:	e7c6      	b.n	8002a5e <USBD_CDC_Setup+0x4a>

08002ad0 <USBD_CDC_DeInit>:
 8002ad0:	b538      	push	{r3, r4, r5, lr}
 8002ad2:	4604      	mov	r4, r0
 8002ad4:	2500      	movs	r5, #0
 8002ad6:	2181      	movs	r1, #129	; 0x81
 8002ad8:	f002 fc4e 	bl	8005378 <USBD_LL_CloseEP>
 8002adc:	2101      	movs	r1, #1
 8002ade:	62e5      	str	r5, [r4, #44]	; 0x2c
 8002ae0:	4620      	mov	r0, r4
 8002ae2:	f002 fc49 	bl	8005378 <USBD_LL_CloseEP>
 8002ae6:	f8c4 516c 	str.w	r5, [r4, #364]	; 0x16c
 8002aea:	2182      	movs	r1, #130	; 0x82
 8002aec:	4620      	mov	r0, r4
 8002aee:	f002 fc43 	bl	8005378 <USBD_LL_CloseEP>
 8002af2:	f8d4 32b8 	ldr.w	r3, [r4, #696]	; 0x2b8
 8002af6:	6425      	str	r5, [r4, #64]	; 0x40
 8002af8:	b14b      	cbz	r3, 8002b0e <USBD_CDC_DeInit+0x3e>
 8002afa:	f8d4 32bc 	ldr.w	r3, [r4, #700]	; 0x2bc
 8002afe:	685b      	ldr	r3, [r3, #4]
 8002b00:	4798      	blx	r3
 8002b02:	f8d4 02b8 	ldr.w	r0, [r4, #696]	; 0x2b8
 8002b06:	f002 fca5 	bl	8005454 <USBD_static_free>
 8002b0a:	f8c4 52b8 	str.w	r5, [r4, #696]	; 0x2b8
 8002b0e:	2000      	movs	r0, #0
 8002b10:	bd38      	pop	{r3, r4, r5, pc}

08002b12 <USBD_CDC_Init>:
 8002b12:	7c03      	ldrb	r3, [r0, #16]
 8002b14:	e92d 41f0 	stmdb	sp!, {r4, r5, r6, r7, r8, lr}
 8002b18:	4604      	mov	r4, r0
 8002b1a:	bbcb      	cbnz	r3, 8002b90 <USBD_CDC_Init+0x7e>
 8002b1c:	f44f 7300 	mov.w	r3, #512	; 0x200
 8002b20:	2202      	movs	r2, #2
 8002b22:	2181      	movs	r1, #129	; 0x81
 8002b24:	2501      	movs	r5, #1
 8002b26:	f002 fc17 	bl	8005358 <USBD_LL_OpenEP>
 8002b2a:	f44f 7300 	mov.w	r3, #512	; 0x200
 8002b2e:	62e5      	str	r5, [r4, #44]	; 0x2c
 8002b30:	4629      	mov	r1, r5
 8002b32:	2202      	movs	r2, #2
 8002b34:	4620      	mov	r0, r4
 8002b36:	f002 fc0f 	bl	8005358 <USBD_LL_OpenEP>
 8002b3a:	f8c4 516c 	str.w	r5, [r4, #364]	; 0x16c
 8002b3e:	2501      	movs	r5, #1
 8002b40:	2308      	movs	r3, #8
 8002b42:	2203      	movs	r2, #3
 8002b44:	2182      	movs	r1, #130	; 0x82
 8002b46:	4620      	mov	r0, r4
 8002b48:	f002 fc06 	bl	8005358 <USBD_LL_OpenEP>
 8002b4c:	6425      	str	r5, [r4, #64]	; 0x40
 8002b4e:	f44f 7007 	mov.w	r0, #540	; 0x21c
 8002b52:	f002 fc7b 	bl	800544c <USBD_static_malloc>
 8002b56:	4606      	mov	r6, r0
 8002b58:	f8c4 02b8 	str.w	r0, [r4, #696]	; 0x2b8
 8002b5c:	b350      	cbz	r0, 8002bb4 <USBD_CDC_Init+0xa2>
 8002b5e:	2700      	movs	r7, #0
 8002b60:	f8d4 32bc 	ldr.w	r3, [r4, #700]	; 0x2bc
 8002b64:	681b      	ldr	r3, [r3, #0]
 8002b66:	4798      	blx	r3
 8002b68:	f894 8010 	ldrb.w	r8, [r4, #16]
 8002b6c:	f8c6 7214 	str.w	r7, [r6, #532]	; 0x214
 8002b70:	f8c6 7218 	str.w	r7, [r6, #536]	; 0x218
 8002b74:	f1b8 0f00 	cmp.w	r8, #0
 8002b78:	d113      	bne.n	8002ba2 <USBD_CDC_Init+0x90>
 8002b7a:	f44f 7300 	mov.w	r3, #512	; 0x200
 8002b7e:	f8d6 2204 	ldr.w	r2, [r6, #516]	; 0x204
 8002b82:	4629      	mov	r1, r5
 8002b84:	4620      	mov	r0, r4
 8002b86:	f002 fc4f 	bl	8005428 <USBD_LL_PrepareReceive>
 8002b8a:	4640      	mov	r0, r8
 8002b8c:	e8bd 81f0 	ldmia.w	sp!, {r4, r5, r6, r7, r8, pc}
 8002b90:	2501      	movs	r5, #1
 8002b92:	2340      	movs	r3, #64	; 0x40
 8002b94:	2202      	movs	r2, #2
 8002b96:	2181      	movs	r1, #129	; 0x81
 8002b98:	f002 fbde 	bl	8005358 <USBD_LL_OpenEP>
 8002b9c:	62e5      	str	r5, [r4, #44]	; 0x2c
 8002b9e:	2340      	movs	r3, #64	; 0x40
 8002ba0:	e7c6      	b.n	8002b30 <USBD_CDC_Init+0x1e>
 8002ba2:	2340      	movs	r3, #64	; 0x40
 8002ba4:	f8d6 2204 	ldr.w	r2, [r6, #516]	; 0x204
 8002ba8:	4629      	mov	r1, r5
 8002baa:	4620      	mov	r0, r4
 8002bac:	f002 fc3c 	bl	8005428 <USBD_LL_PrepareReceive>
 8002bb0:	4638      	mov	r0, r7
 8002bb2:	e7eb      	b.n	8002b8c <USBD_CDC_Init+0x7a>
 8002bb4:	4628      	mov	r0, r5
 8002bb6:	e7e9      	b.n	8002b8c <USBD_CDC_Init+0x7a>

08002bb8 <USBD_CDC_RegisterInterface>:
 8002bb8:	b119      	cbz	r1, 8002bc2 <USBD_CDC_RegisterInterface+0xa>
 8002bba:	f8c0 12bc 	str.w	r1, [r0, #700]	; 0x2bc
 8002bbe:	2000      	movs	r0, #0
 8002bc0:	4770      	bx	lr
 8002bc2:	2002      	movs	r0, #2
 8002bc4:	4770      	bx	lr

08002bc6 <USBD_CDC_SetTxBuffer>:
 8002bc6:	f8d0 32b8 	ldr.w	r3, [r0, #696]	; 0x2b8
 8002bca:	2000      	movs	r0, #0
 8002bcc:	f8c3 1208 	str.w	r1, [r3, #520]	; 0x208
 8002bd0:	f8c3 2210 	str.w	r2, [r3, #528]	; 0x210
 8002bd4:	4770      	bx	lr

08002bd6 <USBD_CDC_SetRxBuffer>:
 8002bd6:	f8d0 32b8 	ldr.w	r3, [r0, #696]	; 0x2b8
 8002bda:	2000      	movs	r0, #0
 8002bdc:	f8c3 1204 	str.w	r1, [r3, #516]	; 0x204
 8002be0:	4770      	bx	lr

08002be2 <USBD_CDC_ReceivePacket>:
 8002be2:	f8d0 22b8 	ldr.w	r2, [r0, #696]	; 0x2b8
 8002be6:	b510      	push	{r4, lr}
 8002be8:	b162      	cbz	r2, 8002c04 <USBD_CDC_ReceivePacket+0x22>
 8002bea:	7c04      	ldrb	r4, [r0, #16]
 8002bec:	f8d2 2204 	ldr.w	r2, [r2, #516]	; 0x204
 8002bf0:	b934      	cbnz	r4, 8002c00 <USBD_CDC_ReceivePacket+0x1e>
 8002bf2:	f44f 7300 	mov.w	r3, #512	; 0x200
 8002bf6:	2101      	movs	r1, #1
 8002bf8:	f002 fc16 	bl	8005428 <USBD_LL_PrepareReceive>
 8002bfc:	2000      	movs	r0, #0
 8002bfe:	bd10      	pop	{r4, pc}
 8002c00:	2340      	movs	r3, #64	; 0x40
 8002c02:	e7f8      	b.n	8002bf6 <USBD_CDC_ReceivePacket+0x14>
 8002c04:	2002      	movs	r0, #2
 8002c06:	e7fa      	b.n	8002bfe <USBD_CDC_ReceivePacket+0x1c>

08002c08 <USBD_Init>:
 8002c08:	b508      	push	{r3, lr}
 8002c0a:	b180      	cbz	r0, 8002c2e <USBD_Init+0x26>
 8002c0c:	f8d0 32b4 	ldr.w	r3, [r0, #692]	; 0x2b4
 8002c10:	b113      	cbz	r3, 8002c18 <USBD_Init+0x10>
 8002c12:	2300      	movs	r3, #0
 8002c14:	f8c0 32b4 	str.w	r3, [r0, #692]	; 0x2b4
 8002c18:	b109      	cbz	r1, 8002c1e <USBD_Init+0x16>
 8002c1a:	f8c0 12b0 	str.w	r1, [r0, #688]	; 0x2b0
 8002c1e:	2301      	movs	r3, #1
 8002c20:	7002      	strb	r2, [r0, #0]
 8002c22:	f880 329c 	strb.w	r3, [r0, #668]	; 0x29c
 8002c26:	f002 fb47 	bl	80052b8 <USBD_LL_Init>
 8002c2a:	2000      	movs	r0, #0
 8002c2c:	bd08      	pop	{r3, pc}
 8002c2e:	2002      	movs	r0, #2
 8002c30:	e7fc      	b.n	8002c2c <USBD_Init+0x24>

08002c32 <USBD_RegisterClass>:
 8002c32:	b119      	cbz	r1, 8002c3c <USBD_RegisterClass+0xa>
 8002c34:	f8c0 12b4 	str.w	r1, [r0, #692]	; 0x2b4
 8002c38:	2000      	movs	r0, #0
 8002c3a:	4770      	bx	lr
 8002c3c:	2002      	movs	r0, #2
 8002c3e:	4770      	bx	lr

08002c40 <USBD_Start>:
 8002c40:	b508      	push	{r3, lr}
 8002c42:	f002 fb7b 	bl	800533c <USBD_LL_Start>
 8002c46:	2000      	movs	r0, #0
 8002c48:	bd08      	pop	{r3, pc}

08002c4a <USBD_SetClassConfig>:
 8002c4a:	b508      	push	{r3, lr}
 8002c4c:	f8d0 32b4 	ldr.w	r3, [r0, #692]	; 0x2b4
 8002c50:	b90b      	cbnz	r3, 8002c56 <USBD_SetClassConfig+0xc>
 8002c52:	2002      	movs	r0, #2
 8002c54:	bd08      	pop	{r3, pc}
 8002c56:	681b      	ldr	r3, [r3, #0]
 8002c58:	4798      	blx	r3
 8002c5a:	2800      	cmp	r0, #0
 8002c5c:	d0fa      	beq.n	8002c54 <USBD_SetClassConfig+0xa>
 8002c5e:	e7f8      	b.n	8002c52 <USBD_SetClassConfig+0x8>

08002c60 <USBD_ClrClassConfig>:
 8002c60:	b508      	push	{r3, lr}
 8002c62:	f8d0 32b4 	ldr.w	r3, [r0, #692]	; 0x2b4
 8002c66:	685b      	ldr	r3, [r3, #4]
 8002c68:	4798      	blx	r3
 8002c6a:	2000      	movs	r0, #0
 8002c6c:	bd08      	pop	{r3, pc}

08002c6e <USBD_LL_SetupStage>:
 8002c6e:	b538      	push	{r3, r4, r5, lr}
 8002c70:	f500 752a 	add.w	r5, r0, #680	; 0x2a8
 8002c74:	4604      	mov	r4, r0
 8002c76:	4628      	mov	r0, r5
 8002c78:	f000 fae2 	bl	8003240 <USBD_ParseSetupRequest>
 8002c7c:	2301      	movs	r3, #1
 8002c7e:	f894 12a8 	ldrb.w	r1, [r4, #680]	; 0x2a8
 8002c82:	f8c4 3294 	str.w	r3, [r4, #660]	; 0x294
 8002c86:	f8b4 32ae 	ldrh.w	r3, [r4, #686]	; 0x2ae
 8002c8a:	f8c4 3298 	str.w	r3, [r4, #664]	; 0x298
 8002c8e:	f001 031f 	and.w	r3, r1, #31
 8002c92:	2b01      	cmp	r3, #1
 8002c94:	d00e      	beq.n	8002cb4 <USBD_LL_SetupStage+0x46>
 8002c96:	d307      	bcc.n	8002ca8 <USBD_LL_SetupStage+0x3a>
 8002c98:	2b02      	cmp	r3, #2
 8002c9a:	d010      	beq.n	8002cbe <USBD_LL_SetupStage+0x50>
 8002c9c:	f001 0180 	and.w	r1, r1, #128	; 0x80
 8002ca0:	4620      	mov	r0, r4
 8002ca2:	f002 fb77 	bl	8005394 <USBD_LL_StallEP>
 8002ca6:	e003      	b.n	8002cb0 <USBD_LL_SetupStage+0x42>
 8002ca8:	4629      	mov	r1, r5
 8002caa:	4620      	mov	r0, r4
 8002cac:	f000 f8f6 	bl	8002e9c <USBD_StdDevReq>
 8002cb0:	2000      	movs	r0, #0
 8002cb2:	bd38      	pop	{r3, r4, r5, pc}
 8002cb4:	4629      	mov	r1, r5
 8002cb6:	4620      	mov	r0, r4
 8002cb8:	f000 fa14 	bl	80030e4 <USBD_StdItfReq>
 8002cbc:	e7f8      	b.n	8002cb0 <USBD_LL_SetupStage+0x42>
 8002cbe:	4629      	mov	r1, r5
 8002cc0:	4620      	mov	r0, r4
 8002cc2:	f000 fa34 	bl	800312e <USBD_StdEPReq>
 8002cc6:	e7f3      	b.n	8002cb0 <USBD_LL_SetupStage+0x42>

08002cc8 <USBD_LL_DataOutStage>:
 8002cc8:	b570      	push	{r4, r5, r6, lr}
 8002cca:	4605      	mov	r5, r0
 8002ccc:	4616      	mov	r6, r2
 8002cce:	bb49      	cbnz	r1, 8002d24 <USBD_LL_DataOutStage+0x5c>
 8002cd0:	f8d0 3294 	ldr.w	r3, [r0, #660]	; 0x294
 8002cd4:	2b03      	cmp	r3, #3
 8002cd6:	d11e      	bne.n	8002d16 <USBD_LL_DataOutStage+0x4e>
 8002cd8:	f8d0 3160 	ldr.w	r3, [r0, #352]	; 0x160
 8002cdc:	f8d0 2164 	ldr.w	r2, [r0, #356]	; 0x164
 8002ce0:	4293      	cmp	r3, r2
 8002ce2:	d90b      	bls.n	8002cfc <USBD_LL_DataOutStage+0x34>
 8002ce4:	1a9b      	subs	r3, r3, r2
 8002ce6:	429a      	cmp	r2, r3
 8002ce8:	f8c0 3160 	str.w	r3, [r0, #352]	; 0x160
 8002cec:	bf8c      	ite	hi
 8002cee:	b29a      	uxthhi	r2, r3
 8002cf0:	b292      	uxthls	r2, r2
 8002cf2:	4631      	mov	r1, r6
 8002cf4:	f000 fb03 	bl	80032fe <USBD_CtlContinueRx>
 8002cf8:	2000      	movs	r0, #0
 8002cfa:	bd70      	pop	{r4, r5, r6, pc}
 8002cfc:	f8d0 32b4 	ldr.w	r3, [r0, #692]	; 0x2b4
 8002d00:	691b      	ldr	r3, [r3, #16]
 8002d02:	b123      	cbz	r3, 8002d0e <USBD_LL_DataOutStage+0x46>
 8002d04:	f890 229c 	ldrb.w	r2, [r0, #668]	; 0x29c
 8002d08:	2a03      	cmp	r2, #3
 8002d0a:	d100      	bne.n	8002d0e <USBD_LL_DataOutStage+0x46>
 8002d0c:	4798      	blx	r3
 8002d0e:	4628      	mov	r0, r5
 8002d10:	f000 fafd 	bl	800330e <USBD_CtlSendStatus>
 8002d14:	e7f0      	b.n	8002cf8 <USBD_LL_DataOutStage+0x30>
 8002d16:	2b05      	cmp	r3, #5
 8002d18:	d1ee      	bne.n	8002cf8 <USBD_LL_DataOutStage+0x30>
 8002d1a:	f8c5 1294 	str.w	r1, [r5, #660]	; 0x294
 8002d1e:	f002 fb39 	bl	8005394 <USBD_LL_StallEP>
 8002d22:	e7e9      	b.n	8002cf8 <USBD_LL_DataOutStage+0x30>
 8002d24:	f8d0 32b4 	ldr.w	r3, [r0, #692]	; 0x2b4
 8002d28:	699b      	ldr	r3, [r3, #24]
 8002d2a:	b12b      	cbz	r3, 8002d38 <USBD_LL_DataOutStage+0x70>
 8002d2c:	f890 229c 	ldrb.w	r2, [r0, #668]	; 0x29c
 8002d30:	2a03      	cmp	r2, #3
 8002d32:	d101      	bne.n	8002d38 <USBD_LL_DataOutStage+0x70>
 8002d34:	4798      	blx	r3
 8002d36:	e7df      	b.n	8002cf8 <USBD_LL_DataOutStage+0x30>
 8002d38:	2002      	movs	r0, #2
 8002d3a:	e7de      	b.n	8002cfa <USBD_LL_DataOutStage+0x32>

08002d3c <USBD_LL_DataInStage>:
 8002d3c:	b570      	push	{r4, r5, r6, lr}
 8002d3e:	4613      	mov	r3, r2
 8002d40:	4604      	mov	r4, r0
 8002d42:	460e      	mov	r6, r1
 8002d44:	2900      	cmp	r1, #0
 8002d46:	d147      	bne.n	8002dd8 <USBD_LL_DataInStage+0x9c>
 8002d48:	f8d0 2294 	ldr.w	r2, [r0, #660]	; 0x294
 8002d4c:	2a02      	cmp	r2, #2
 8002d4e:	d13c      	bne.n	8002dca <USBD_LL_DataInStage+0x8e>
 8002d50:	e9d0 5208 	ldrd	r5, r2, [r0, #32]
 8002d54:	4295      	cmp	r5, r2
 8002d56:	d913      	bls.n	8002d80 <USBD_LL_DataInStage+0x44>
 8002d58:	1aaa      	subs	r2, r5, r2
 8002d5a:	6202      	str	r2, [r0, #32]
 8002d5c:	4619      	mov	r1, r3
 8002d5e:	b292      	uxth	r2, r2
 8002d60:	f000 fab6 	bl	80032d0 <USBD_CtlContinueSendData>
 8002d64:	4633      	mov	r3, r6
 8002d66:	461a      	mov	r2, r3
 8002d68:	4619      	mov	r1, r3
 8002d6a:	4620      	mov	r0, r4
 8002d6c:	f002 fb5c 	bl	8005428 <USBD_LL_PrepareReceive>
 8002d70:	f894 32a0 	ldrb.w	r3, [r4, #672]	; 0x2a0
 8002d74:	2000      	movs	r0, #0
 8002d76:	2b01      	cmp	r3, #1
 8002d78:	d101      	bne.n	8002d7e <USBD_LL_DataInStage+0x42>
 8002d7a:	f884 02a0 	strb.w	r0, [r4, #672]	; 0x2a0
 8002d7e:	bd70      	pop	{r4, r5, r6, pc}
 8002d80:	69c3      	ldr	r3, [r0, #28]
 8002d82:	fbb3 f5f2 	udiv	r5, r3, r2
 8002d86:	fb02 3515 	mls	r5, r2, r5, r3
 8002d8a:	b965      	cbnz	r5, 8002da6 <USBD_LL_DataInStage+0x6a>
 8002d8c:	429a      	cmp	r2, r3
 8002d8e:	d80a      	bhi.n	8002da6 <USBD_LL_DataInStage+0x6a>
 8002d90:	f8d0 2298 	ldr.w	r2, [r0, #664]	; 0x298
 8002d94:	4293      	cmp	r3, r2
 8002d96:	d206      	bcs.n	8002da6 <USBD_LL_DataInStage+0x6a>
 8002d98:	462a      	mov	r2, r5
 8002d9a:	f000 fa99 	bl	80032d0 <USBD_CtlContinueSendData>
 8002d9e:	f8c4 5298 	str.w	r5, [r4, #664]	; 0x298
 8002da2:	462b      	mov	r3, r5
 8002da4:	e7df      	b.n	8002d66 <USBD_LL_DataInStage+0x2a>
 8002da6:	f8d4 32b4 	ldr.w	r3, [r4, #692]	; 0x2b4
 8002daa:	68db      	ldr	r3, [r3, #12]
 8002dac:	b12b      	cbz	r3, 8002dba <USBD_LL_DataInStage+0x7e>
 8002dae:	f894 229c 	ldrb.w	r2, [r4, #668]	; 0x29c
 8002db2:	2a03      	cmp	r2, #3
 8002db4:	d101      	bne.n	8002dba <USBD_LL_DataInStage+0x7e>
 8002db6:	4620      	mov	r0, r4
 8002db8:	4798      	blx	r3
 8002dba:	2180      	movs	r1, #128	; 0x80
 8002dbc:	4620      	mov	r0, r4
 8002dbe:	f002 fae9 	bl	8005394 <USBD_LL_StallEP>
 8002dc2:	4620      	mov	r0, r4
 8002dc4:	f000 faae 	bl	8003324 <USBD_CtlReceiveStatus>
 8002dc8:	e7d2      	b.n	8002d70 <USBD_LL_DataInStage+0x34>
 8002dca:	f032 0304 	bics.w	r3, r2, #4
 8002dce:	d1cf      	bne.n	8002d70 <USBD_LL_DataInStage+0x34>
 8002dd0:	2180      	movs	r1, #128	; 0x80
 8002dd2:	f002 fadf 	bl	8005394 <USBD_LL_StallEP>
 8002dd6:	e7cb      	b.n	8002d70 <USBD_LL_DataInStage+0x34>
 8002dd8:	f8d0 32b4 	ldr.w	r3, [r0, #692]	; 0x2b4
 8002ddc:	695b      	ldr	r3, [r3, #20]
 8002dde:	b133      	cbz	r3, 8002dee <USBD_LL_DataInStage+0xb2>
 8002de0:	f890 229c 	ldrb.w	r2, [r0, #668]	; 0x29c
 8002de4:	2a03      	cmp	r2, #3
 8002de6:	d102      	bne.n	8002dee <USBD_LL_DataInStage+0xb2>
 8002de8:	4798      	blx	r3
 8002dea:	2000      	movs	r0, #0
 8002dec:	e7c7      	b.n	8002d7e <USBD_LL_DataInStage+0x42>
 8002dee:	2002      	movs	r0, #2
 8002df0:	e7c5      	b.n	8002d7e <USBD_LL_DataInStage+0x42>

08002df2 <USBD_LL_Reset>:
 8002df2:	2200      	movs	r2, #0
 8002df4:	b570      	push	{r4, r5, r6, lr}
 8002df6:	4604      	mov	r4, r0
 8002df8:	2501      	movs	r5, #1
 8002dfa:	2640      	movs	r6, #64	; 0x40
 8002dfc:	4611      	mov	r1, r2
 8002dfe:	2340      	movs	r3, #64	; 0x40
 8002e00:	f002 faaa 	bl	8005358 <USBD_LL_OpenEP>
 8002e04:	4633      	mov	r3, r6
 8002e06:	2180      	movs	r1, #128	; 0x80
 8002e08:	f8c4 5158 	str.w	r5, [r4, #344]	; 0x158
 8002e0c:	f8c4 6164 	str.w	r6, [r4, #356]	; 0x164
 8002e10:	2200      	movs	r2, #0
 8002e12:	4620      	mov	r0, r4
 8002e14:	f002 faa0 	bl	8005358 <USBD_LL_OpenEP>
 8002e18:	2100      	movs	r1, #0
 8002e1a:	f8d4 32b8 	ldr.w	r3, [r4, #696]	; 0x2b8
 8002e1e:	61a5      	str	r5, [r4, #24]
 8002e20:	6266      	str	r6, [r4, #36]	; 0x24
 8002e22:	f884 529c 	strb.w	r5, [r4, #668]	; 0x29c
 8002e26:	f8c4 1294 	str.w	r1, [r4, #660]	; 0x294
 8002e2a:	6061      	str	r1, [r4, #4]
 8002e2c:	f8c4 12a4 	str.w	r1, [r4, #676]	; 0x2a4
 8002e30:	b123      	cbz	r3, 8002e3c <USBD_LL_Reset+0x4a>
 8002e32:	f8d4 32b4 	ldr.w	r3, [r4, #692]	; 0x2b4
 8002e36:	4620      	mov	r0, r4
 8002e38:	685b      	ldr	r3, [r3, #4]
 8002e3a:	4798      	blx	r3
 8002e3c:	2000      	movs	r0, #0
 8002e3e:	bd70      	pop	{r4, r5, r6, pc}

08002e40 <USBD_LL_SetSpeed>:
 8002e40:	7401      	strb	r1, [r0, #16]
 8002e42:	2000      	movs	r0, #0
 8002e44:	4770      	bx	lr

08002e46 <USBD_LL_Suspend>:
 8002e46:	f890 329c 	ldrb.w	r3, [r0, #668]	; 0x29c
 8002e4a:	f880 329d 	strb.w	r3, [r0, #669]	; 0x29d
 8002e4e:	2304      	movs	r3, #4
 8002e50:	f880 329c 	strb.w	r3, [r0, #668]	; 0x29c
 8002e54:	2000      	movs	r0, #0
 8002e56:	4770      	bx	lr

08002e58 <USBD_LL_Resume>:
 8002e58:	f890 329c 	ldrb.w	r3, [r0, #668]	; 0x29c
 8002e5c:	2b04      	cmp	r3, #4
 8002e5e:	bf04      	itt	eq
 8002e60:	f890 329d 	ldrbeq.w	r3, [r0, #669]	; 0x29d
 8002e64:	f880 329c 	strbeq.w	r3, [r0, #668]	; 0x29c
 8002e68:	2000      	movs	r0, #0
 8002e6a:	4770      	bx	lr

08002e6c <USBD_LL_SOF>:
 8002e6c:	b508      	push	{r3, lr}
 8002e6e:	f890 229c 	ldrb.w	r2, [r0, #668]	; 0x29c
 8002e72:	2a03      	cmp	r2, #3
 8002e74:	d104      	bne.n	8002e80 <USBD_LL_SOF+0x14>
 8002e76:	f8d0 32b4 	ldr.w	r3, [r0, #692]	; 0x2b4
 8002e7a:	69db      	ldr	r3, [r3, #28]
 8002e7c:	b103      	cbz	r3, 8002e80 <USBD_LL_SOF+0x14>
 8002e7e:	4798      	blx	r3
 8002e80:	2000      	movs	r0, #0
 8002e82:	bd08      	pop	{r3, pc}

08002e84 <USBD_CtlError.constprop.1>:
 8002e84:	b510      	push	{r4, lr}
 8002e86:	4604      	mov	r4, r0
 8002e88:	2180      	movs	r1, #128	; 0x80
 8002e8a:	f002 fa83 	bl	8005394 <USBD_LL_StallEP>
 8002e8e:	4620      	mov	r0, r4
 8002e90:	e8bd 4010 	ldmia.w	sp!, {r4, lr}
 8002e94:	2100      	movs	r1, #0
 8002e96:	f002 ba7d 	b.w	8005394 <USBD_LL_StallEP>
	...

08002e9c <USBD_StdDevReq>:
 8002e9c:	b537      	push	{r0, r1, r2, r4, r5, lr}
 8002e9e:	780b      	ldrb	r3, [r1, #0]
 8002ea0:	4604      	mov	r4, r0
 8002ea2:	f003 0360 	and.w	r3, r3, #96	; 0x60
 8002ea6:	2b20      	cmp	r3, #32
 8002ea8:	460d      	mov	r5, r1
 8002eaa:	d012      	beq.n	8002ed2 <USBD_StdDevReq+0x36>
 8002eac:	2b40      	cmp	r3, #64	; 0x40
 8002eae:	d010      	beq.n	8002ed2 <USBD_StdDevReq+0x36>
 8002eb0:	2b00      	cmp	r3, #0
 8002eb2:	d15b      	bne.n	8002f6c <USBD_StdDevReq+0xd0>
 8002eb4:	784b      	ldrb	r3, [r1, #1]
 8002eb6:	2b09      	cmp	r3, #9
 8002eb8:	d858      	bhi.n	8002f6c <USBD_StdDevReq+0xd0>
 8002eba:	e8df f013 	tbh	[pc, r3, lsl #1]
 8002ebe:	00e9      	.short	0x00e9
 8002ec0:	00570105 	.word	0x00570105
 8002ec4:	005700fe 	.word	0x005700fe
 8002ec8:	00130084 	.word	0x00130084
 8002ecc:	00d20057 	.word	0x00d20057
 8002ed0:	00a0      	.short	0x00a0
 8002ed2:	f8d4 32b4 	ldr.w	r3, [r4, #692]	; 0x2b4
 8002ed6:	4629      	mov	r1, r5
 8002ed8:	689b      	ldr	r3, [r3, #8]
 8002eda:	4620      	mov	r0, r4
 8002edc:	4798      	blx	r3
 8002ede:	2000      	movs	r0, #0
 8002ee0:	b003      	add	sp, #12
 8002ee2:	bd30      	pop	{r4, r5, pc}
 8002ee4:	2300      	movs	r3, #0
 8002ee6:	f8ad 3006 	strh.w	r3, [sp, #6]
 8002eea:	884b      	ldrh	r3, [r1, #2]
 8002eec:	0a1a      	lsrs	r2, r3, #8
 8002eee:	3a01      	subs	r2, #1
 8002ef0:	2a06      	cmp	r2, #6
 8002ef2:	d83b      	bhi.n	8002f6c <USBD_StdDevReq+0xd0>
 8002ef4:	e8df f002 	tbb	[pc, r2]
 8002ef8:	3a2d2004 	.word	0x3a2d2004
 8002efc:	523a      	.short	0x523a
 8002efe:	5c          	.byte	0x5c
 8002eff:	00          	.byte	0x00
 8002f00:	f8d0 32b0 	ldr.w	r3, [r0, #688]	; 0x2b0
 8002f04:	681b      	ldr	r3, [r3, #0]
 8002f06:	f10d 0106 	add.w	r1, sp, #6
 8002f0a:	7c20      	ldrb	r0, [r4, #16]
 8002f0c:	4798      	blx	r3
 8002f0e:	f8bd 2006 	ldrh.w	r2, [sp, #6]
 8002f12:	b152      	cbz	r2, 8002f2a <USBD_StdDevReq+0x8e>
 8002f14:	88eb      	ldrh	r3, [r5, #6]
 8002f16:	b143      	cbz	r3, 8002f2a <USBD_StdDevReq+0x8e>
 8002f18:	429a      	cmp	r2, r3
 8002f1a:	bf28      	it	cs
 8002f1c:	461a      	movcs	r2, r3
 8002f1e:	4601      	mov	r1, r0
 8002f20:	4620      	mov	r0, r4
 8002f22:	f8ad 2006 	strh.w	r2, [sp, #6]
 8002f26:	f000 f9c6 	bl	80032b6 <USBD_CtlSendData>
 8002f2a:	88eb      	ldrh	r3, [r5, #6]
 8002f2c:	2b00      	cmp	r3, #0
 8002f2e:	d1d6      	bne.n	8002ede <USBD_StdDevReq+0x42>
 8002f30:	4620      	mov	r0, r4
 8002f32:	f000 f9ec 	bl	800330e <USBD_CtlSendStatus>
 8002f36:	e7d2      	b.n	8002ede <USBD_StdDevReq+0x42>
 8002f38:	7c02      	ldrb	r2, [r0, #16]
 8002f3a:	f8d0 32b4 	ldr.w	r3, [r0, #692]	; 0x2b4
 8002f3e:	b932      	cbnz	r2, 8002f4e <USBD_StdDevReq+0xb2>
 8002f40:	6a9b      	ldr	r3, [r3, #40]	; 0x28
 8002f42:	f10d 0006 	add.w	r0, sp, #6
 8002f46:	4798      	blx	r3
 8002f48:	2302      	movs	r3, #2
 8002f4a:	7043      	strb	r3, [r0, #1]
 8002f4c:	e7df      	b.n	8002f0e <USBD_StdDevReq+0x72>
 8002f4e:	6adb      	ldr	r3, [r3, #44]	; 0x2c
 8002f50:	e7f7      	b.n	8002f42 <USBD_StdDevReq+0xa6>
 8002f52:	b2db      	uxtb	r3, r3
 8002f54:	2b05      	cmp	r3, #5
 8002f56:	d809      	bhi.n	8002f6c <USBD_StdDevReq+0xd0>
 8002f58:	e8df f003 	tbb	[pc, r3]
 8002f5c:	14100c03 	.word	0x14100c03
 8002f60:	1c18      	.short	0x1c18
 8002f62:	f8d0 32b0 	ldr.w	r3, [r0, #688]	; 0x2b0
 8002f66:	685b      	ldr	r3, [r3, #4]
 8002f68:	2b00      	cmp	r3, #0
 8002f6a:	d1cc      	bne.n	8002f06 <USBD_StdDevReq+0x6a>
 8002f6c:	4620      	mov	r0, r4
 8002f6e:	f7ff ff89 	bl	8002e84 <USBD_CtlError.constprop.1>
 8002f72:	e7b4      	b.n	8002ede <USBD_StdDevReq+0x42>
 8002f74:	f8d0 32b0 	ldr.w	r3, [r0, #688]	; 0x2b0
 8002f78:	689b      	ldr	r3, [r3, #8]
 8002f7a:	e7f5      	b.n	8002f68 <USBD_StdDevReq+0xcc>
 8002f7c:	f8d0 32b0 	ldr.w	r3, [r0, #688]	; 0x2b0
 8002f80:	68db      	ldr	r3, [r3, #12]
 8002f82:	e7f1      	b.n	8002f68 <USBD_StdDevReq+0xcc>
 8002f84:	f8d0 32b0 	ldr.w	r3, [r0, #688]	; 0x2b0
 8002f88:	691b      	ldr	r3, [r3, #16]
 8002f8a:	e7ed      	b.n	8002f68 <USBD_StdDevReq+0xcc>
 8002f8c:	f8d0 32b0 	ldr.w	r3, [r0, #688]	; 0x2b0
 8002f90:	695b      	ldr	r3, [r3, #20]
 8002f92:	e7e9      	b.n	8002f68 <USBD_StdDevReq+0xcc>
 8002f94:	f8d0 32b0 	ldr.w	r3, [r0, #688]	; 0x2b0
 8002f98:	699b      	ldr	r3, [r3, #24]
 8002f9a:	e7e5      	b.n	8002f68 <USBD_StdDevReq+0xcc>
 8002f9c:	7c03      	ldrb	r3, [r0, #16]
 8002f9e:	2b00      	cmp	r3, #0
 8002fa0:	d1e4      	bne.n	8002f6c <USBD_StdDevReq+0xd0>
 8002fa2:	f8d0 32b4 	ldr.w	r3, [r0, #692]	; 0x2b4
 8002fa6:	f10d 0006 	add.w	r0, sp, #6
 8002faa:	6b5b      	ldr	r3, [r3, #52]	; 0x34
 8002fac:	4798      	blx	r3
 8002fae:	e7ae      	b.n	8002f0e <USBD_StdDevReq+0x72>
 8002fb0:	7c03      	ldrb	r3, [r0, #16]
 8002fb2:	2b00      	cmp	r3, #0
 8002fb4:	d1da      	bne.n	8002f6c <USBD_StdDevReq+0xd0>
 8002fb6:	f8d0 32b4 	ldr.w	r3, [r0, #692]	; 0x2b4
 8002fba:	f10d 0006 	add.w	r0, sp, #6
 8002fbe:	6b1b      	ldr	r3, [r3, #48]	; 0x30
 8002fc0:	4798      	blx	r3
 8002fc2:	2307      	movs	r3, #7
 8002fc4:	e7c1      	b.n	8002f4a <USBD_StdDevReq+0xae>
 8002fc6:	888b      	ldrh	r3, [r1, #4]
 8002fc8:	2b00      	cmp	r3, #0
 8002fca:	d1cf      	bne.n	8002f6c <USBD_StdDevReq+0xd0>
 8002fcc:	88cb      	ldrh	r3, [r1, #6]
 8002fce:	2b00      	cmp	r3, #0
 8002fd0:	d1cc      	bne.n	8002f6c <USBD_StdDevReq+0xd0>
 8002fd2:	884d      	ldrh	r5, [r1, #2]
 8002fd4:	2d7f      	cmp	r5, #127	; 0x7f
 8002fd6:	d8c9      	bhi.n	8002f6c <USBD_StdDevReq+0xd0>
 8002fd8:	f890 329c 	ldrb.w	r3, [r0, #668]	; 0x29c
 8002fdc:	2b03      	cmp	r3, #3
 8002fde:	d0c5      	beq.n	8002f6c <USBD_StdDevReq+0xd0>
 8002fe0:	b2e9      	uxtb	r1, r5
 8002fe2:	f880 129e 	strb.w	r1, [r0, #670]	; 0x29e
 8002fe6:	f002 fa03 	bl	80053f0 <USBD_LL_SetUSBAddress>
 8002fea:	4620      	mov	r0, r4
 8002fec:	f000 f98f 	bl	800330e <USBD_CtlSendStatus>
 8002ff0:	b11d      	cbz	r5, 8002ffa <USBD_StdDevReq+0x15e>
 8002ff2:	2302      	movs	r3, #2
 8002ff4:	f884 329c 	strb.w	r3, [r4, #668]	; 0x29c
 8002ff8:	e771      	b.n	8002ede <USBD_StdDevReq+0x42>
 8002ffa:	2301      	movs	r3, #1
 8002ffc:	e7fa      	b.n	8002ff4 <USBD_StdDevReq+0x158>
 8002ffe:	7889      	ldrb	r1, [r1, #2]
 8003000:	4d37      	ldr	r5, [pc, #220]	; (80030e0 <USBD_StdDevReq+0x244>)
 8003002:	2901      	cmp	r1, #1
 8003004:	7029      	strb	r1, [r5, #0]
 8003006:	d8b1      	bhi.n	8002f6c <USBD_StdDevReq+0xd0>
 8003008:	f890 329c 	ldrb.w	r3, [r0, #668]	; 0x29c
 800300c:	2b02      	cmp	r3, #2
 800300e:	d008      	beq.n	8003022 <USBD_StdDevReq+0x186>
 8003010:	2b03      	cmp	r3, #3
 8003012:	d014      	beq.n	800303e <USBD_StdDevReq+0x1a2>
 8003014:	f7ff ff36 	bl	8002e84 <USBD_CtlError.constprop.1>
 8003018:	7829      	ldrb	r1, [r5, #0]
 800301a:	4620      	mov	r0, r4
 800301c:	f7ff fe20 	bl	8002c60 <USBD_ClrClassConfig>
 8003020:	e75d      	b.n	8002ede <USBD_StdDevReq+0x42>
 8003022:	2900      	cmp	r1, #0
 8003024:	d084      	beq.n	8002f30 <USBD_StdDevReq+0x94>
 8003026:	2101      	movs	r1, #1
 8003028:	2303      	movs	r3, #3
 800302a:	6041      	str	r1, [r0, #4]
 800302c:	f880 329c 	strb.w	r3, [r0, #668]	; 0x29c
 8003030:	4620      	mov	r0, r4
 8003032:	f7ff fe0a 	bl	8002c4a <USBD_SetClassConfig>
 8003036:	2802      	cmp	r0, #2
 8003038:	f47f af7a 	bne.w	8002f30 <USBD_StdDevReq+0x94>
 800303c:	e796      	b.n	8002f6c <USBD_StdDevReq+0xd0>
 800303e:	b931      	cbnz	r1, 800304e <USBD_StdDevReq+0x1b2>
 8003040:	2302      	movs	r3, #2
 8003042:	6041      	str	r1, [r0, #4]
 8003044:	f880 329c 	strb.w	r3, [r0, #668]	; 0x29c
 8003048:	f7ff fe0a 	bl	8002c60 <USBD_ClrClassConfig>
 800304c:	e770      	b.n	8002f30 <USBD_StdDevReq+0x94>
 800304e:	6841      	ldr	r1, [r0, #4]
 8003050:	2901      	cmp	r1, #1
 8003052:	f43f af6d 	beq.w	8002f30 <USBD_StdDevReq+0x94>
 8003056:	b2c9      	uxtb	r1, r1
 8003058:	f7ff fe02 	bl	8002c60 <USBD_ClrClassConfig>
 800305c:	7829      	ldrb	r1, [r5, #0]
 800305e:	6061      	str	r1, [r4, #4]
 8003060:	e7e6      	b.n	8003030 <USBD_StdDevReq+0x194>
 8003062:	88ca      	ldrh	r2, [r1, #6]
 8003064:	2a01      	cmp	r2, #1
 8003066:	d181      	bne.n	8002f6c <USBD_StdDevReq+0xd0>
 8003068:	f890 329c 	ldrb.w	r3, [r0, #668]	; 0x29c
 800306c:	2b00      	cmp	r3, #0
 800306e:	f43f af7d 	beq.w	8002f6c <USBD_StdDevReq+0xd0>
 8003072:	2b02      	cmp	r3, #2
 8003074:	d904      	bls.n	8003080 <USBD_StdDevReq+0x1e4>
 8003076:	2b03      	cmp	r3, #3
 8003078:	f47f af78 	bne.w	8002f6c <USBD_StdDevReq+0xd0>
 800307c:	1d01      	adds	r1, r0, #4
 800307e:	e003      	b.n	8003088 <USBD_StdDevReq+0x1ec>
 8003080:	4601      	mov	r1, r0
 8003082:	2300      	movs	r3, #0
 8003084:	f841 3f08 	str.w	r3, [r1, #8]!
 8003088:	4620      	mov	r0, r4
 800308a:	f000 f914 	bl	80032b6 <USBD_CtlSendData>
 800308e:	e726      	b.n	8002ede <USBD_StdDevReq+0x42>
 8003090:	f890 329c 	ldrb.w	r3, [r0, #668]	; 0x29c
 8003094:	3b01      	subs	r3, #1
 8003096:	2b02      	cmp	r3, #2
 8003098:	f63f af68 	bhi.w	8002f6c <USBD_StdDevReq+0xd0>
 800309c:	88cb      	ldrh	r3, [r1, #6]
 800309e:	2b02      	cmp	r3, #2
 80030a0:	f47f af64 	bne.w	8002f6c <USBD_StdDevReq+0xd0>
 80030a4:	2301      	movs	r3, #1
 80030a6:	60c3      	str	r3, [r0, #12]
 80030a8:	f8d0 32a4 	ldr.w	r3, [r0, #676]	; 0x2a4
 80030ac:	b10b      	cbz	r3, 80030b2 <USBD_StdDevReq+0x216>
 80030ae:	2303      	movs	r3, #3
 80030b0:	60c3      	str	r3, [r0, #12]
 80030b2:	2202      	movs	r2, #2
 80030b4:	f104 010c 	add.w	r1, r4, #12
 80030b8:	e7e6      	b.n	8003088 <USBD_StdDevReq+0x1ec>
 80030ba:	884b      	ldrh	r3, [r1, #2]
 80030bc:	2b01      	cmp	r3, #1
 80030be:	f47f af0e 	bne.w	8002ede <USBD_StdDevReq+0x42>
 80030c2:	f8c4 32a4 	str.w	r3, [r4, #676]	; 0x2a4
 80030c6:	e733      	b.n	8002f30 <USBD_StdDevReq+0x94>
 80030c8:	f890 329c 	ldrb.w	r3, [r0, #668]	; 0x29c
 80030cc:	3b01      	subs	r3, #1
 80030ce:	2b02      	cmp	r3, #2
 80030d0:	f63f af4c 	bhi.w	8002f6c <USBD_StdDevReq+0xd0>
 80030d4:	884b      	ldrh	r3, [r1, #2]
 80030d6:	2b01      	cmp	r3, #1
 80030d8:	f47f af01 	bne.w	8002ede <USBD_StdDevReq+0x42>
 80030dc:	2300      	movs	r3, #0
 80030de:	e7f0      	b.n	80030c2 <USBD_StdDevReq+0x226>
 80030e0:	20000234 	.word	0x20000234

080030e4 <USBD_StdItfReq>:
 80030e4:	b538      	push	{r3, r4, r5, lr}
 80030e6:	780b      	ldrb	r3, [r1, #0]
 80030e8:	4604      	mov	r4, r0
 80030ea:	f003 0360 	and.w	r3, r3, #96	; 0x60
 80030ee:	2b20      	cmp	r3, #32
 80030f0:	460d      	mov	r5, r1
 80030f2:	d002      	beq.n	80030fa <USBD_StdItfReq+0x16>
 80030f4:	2b40      	cmp	r3, #64	; 0x40
 80030f6:	d000      	beq.n	80030fa <USBD_StdItfReq+0x16>
 80030f8:	b9ab      	cbnz	r3, 8003126 <USBD_StdItfReq+0x42>
 80030fa:	f894 329c 	ldrb.w	r3, [r4, #668]	; 0x29c
 80030fe:	3b01      	subs	r3, #1
 8003100:	2b02      	cmp	r3, #2
 8003102:	d810      	bhi.n	8003126 <USBD_StdItfReq+0x42>
 8003104:	792b      	ldrb	r3, [r5, #4]
 8003106:	2b01      	cmp	r3, #1
 8003108:	d80d      	bhi.n	8003126 <USBD_StdItfReq+0x42>
 800310a:	f8d4 32b4 	ldr.w	r3, [r4, #692]	; 0x2b4
 800310e:	4629      	mov	r1, r5
 8003110:	689b      	ldr	r3, [r3, #8]
 8003112:	4620      	mov	r0, r4
 8003114:	4798      	blx	r3
 8003116:	88eb      	ldrh	r3, [r5, #6]
 8003118:	b91b      	cbnz	r3, 8003122 <USBD_StdItfReq+0x3e>
 800311a:	b910      	cbnz	r0, 8003122 <USBD_StdItfReq+0x3e>
 800311c:	4620      	mov	r0, r4
 800311e:	f000 f8f6 	bl	800330e <USBD_CtlSendStatus>
 8003122:	2000      	movs	r0, #0
 8003124:	bd38      	pop	{r3, r4, r5, pc}
 8003126:	4620      	mov	r0, r4
 8003128:	f7ff feac 	bl	8002e84 <USBD_CtlError.constprop.1>
 800312c:	e7f9      	b.n	8003122 <USBD_StdItfReq+0x3e>

0800312e <USBD_StdEPReq>:
 800312e:	b538      	push	{r3, r4, r5, lr}
 8003130:	780a      	ldrb	r2, [r1, #0]
 8003132:	4604      	mov	r4, r0
 8003134:	f002 0260 	and.w	r2, r2, #96	; 0x60
 8003138:	2a20      	cmp	r2, #32
 800313a:	460b      	mov	r3, r1
 800313c:	d014      	beq.n	8003168 <USBD_StdEPReq+0x3a>
 800313e:	2a40      	cmp	r2, #64	; 0x40
 8003140:	d012      	beq.n	8003168 <USBD_StdEPReq+0x3a>
 8003142:	b96a      	cbnz	r2, 8003160 <USBD_StdEPReq+0x32>
 8003144:	785a      	ldrb	r2, [r3, #1]
 8003146:	888d      	ldrh	r5, [r1, #4]
 8003148:	2a01      	cmp	r2, #1
 800314a:	b2e9      	uxtb	r1, r5
 800314c:	d020      	beq.n	8003190 <USBD_StdEPReq+0x62>
 800314e:	d336      	bcc.n	80031be <USBD_StdEPReq+0x90>
 8003150:	2a03      	cmp	r2, #3
 8003152:	d105      	bne.n	8003160 <USBD_StdEPReq+0x32>
 8003154:	f890 229c 	ldrb.w	r2, [r0, #668]	; 0x29c
 8003158:	2a02      	cmp	r2, #2
 800315a:	d027      	beq.n	80031ac <USBD_StdEPReq+0x7e>
 800315c:	2a03      	cmp	r2, #3
 800315e:	d00b      	beq.n	8003178 <USBD_StdEPReq+0x4a>
 8003160:	4620      	mov	r0, r4
 8003162:	f7ff fe8f 	bl	8002e84 <USBD_CtlError.constprop.1>
 8003166:	e005      	b.n	8003174 <USBD_StdEPReq+0x46>
 8003168:	f8d4 22b4 	ldr.w	r2, [r4, #692]	; 0x2b4
 800316c:	4619      	mov	r1, r3
 800316e:	6892      	ldr	r2, [r2, #8]
 8003170:	4620      	mov	r0, r4
 8003172:	4790      	blx	r2
 8003174:	2000      	movs	r0, #0
 8003176:	bd38      	pop	{r3, r4, r5, pc}
 8003178:	885a      	ldrh	r2, [r3, #2]
 800317a:	b92a      	cbnz	r2, 8003188 <USBD_StdEPReq+0x5a>
 800317c:	064a      	lsls	r2, r1, #25
 800317e:	d003      	beq.n	8003188 <USBD_StdEPReq+0x5a>
 8003180:	88db      	ldrh	r3, [r3, #6]
 8003182:	b90b      	cbnz	r3, 8003188 <USBD_StdEPReq+0x5a>
 8003184:	f002 f906 	bl	8005394 <USBD_LL_StallEP>
 8003188:	4620      	mov	r0, r4
 800318a:	f000 f8c0 	bl	800330e <USBD_CtlSendStatus>
 800318e:	e7f1      	b.n	8003174 <USBD_StdEPReq+0x46>
 8003190:	f890 229c 	ldrb.w	r2, [r0, #668]	; 0x29c
 8003194:	2a02      	cmp	r2, #2
 8003196:	d009      	beq.n	80031ac <USBD_StdEPReq+0x7e>
 8003198:	2a03      	cmp	r2, #3
 800319a:	d1e1      	bne.n	8003160 <USBD_StdEPReq+0x32>
 800319c:	885b      	ldrh	r3, [r3, #2]
 800319e:	2b00      	cmp	r3, #0
 80031a0:	d1e8      	bne.n	8003174 <USBD_StdEPReq+0x46>
 80031a2:	064d      	lsls	r5, r1, #25
 80031a4:	d0f0      	beq.n	8003188 <USBD_StdEPReq+0x5a>
 80031a6:	f002 f903 	bl	80053b0 <USBD_LL_ClearStallEP>
 80031aa:	e7ed      	b.n	8003188 <USBD_StdEPReq+0x5a>
 80031ac:	064b      	lsls	r3, r1, #25
 80031ae:	d0d7      	beq.n	8003160 <USBD_StdEPReq+0x32>
 80031b0:	f002 f8f0 	bl	8005394 <USBD_LL_StallEP>
 80031b4:	2180      	movs	r1, #128	; 0x80
 80031b6:	4620      	mov	r0, r4
 80031b8:	f002 f8ec 	bl	8005394 <USBD_LL_StallEP>
 80031bc:	e7da      	b.n	8003174 <USBD_StdEPReq+0x46>
 80031be:	f890 329c 	ldrb.w	r3, [r0, #668]	; 0x29c
 80031c2:	2b02      	cmp	r3, #2
 80031c4:	d018      	beq.n	80031f8 <USBD_StdEPReq+0xca>
 80031c6:	2b03      	cmp	r3, #3
 80031c8:	d1ca      	bne.n	8003160 <USBD_StdEPReq+0x32>
 80031ca:	2314      	movs	r3, #20
 80031cc:	f001 020f 	and.w	r2, r1, #15
 80031d0:	f015 0f80 	tst.w	r5, #128	; 0x80
 80031d4:	fb03 0202 	mla	r2, r3, r2, r0
 80031d8:	d01f      	beq.n	800321a <USBD_StdEPReq+0xec>
 80031da:	6992      	ldr	r2, [r2, #24]
 80031dc:	2a00      	cmp	r2, #0
 80031de:	d0bf      	beq.n	8003160 <USBD_StdEPReq+0x32>
 80031e0:	f001 057f 	and.w	r5, r1, #127	; 0x7f
 80031e4:	fb05 3503 	mla	r5, r5, r3, r3
 80031e8:	4405      	add	r5, r0
 80031ea:	f011 037f 	ands.w	r3, r1, #127	; 0x7f
 80031ee:	d11f      	bne.n	8003230 <USBD_StdEPReq+0x102>
 80031f0:	602b      	str	r3, [r5, #0]
 80031f2:	2202      	movs	r2, #2
 80031f4:	4629      	mov	r1, r5
 80031f6:	e00c      	b.n	8003212 <USBD_StdEPReq+0xe4>
 80031f8:	064a      	lsls	r2, r1, #25
 80031fa:	d1b1      	bne.n	8003160 <USBD_StdEPReq+0x32>
 80031fc:	062b      	lsls	r3, r5, #24
 80031fe:	f04f 0300 	mov.w	r3, #0
 8003202:	f04f 0202 	mov.w	r2, #2
 8003206:	bf4c      	ite	mi
 8003208:	f100 0114 	addmi.w	r1, r0, #20
 800320c:	f500 71aa 	addpl.w	r1, r0, #340	; 0x154
 8003210:	600b      	str	r3, [r1, #0]
 8003212:	4620      	mov	r0, r4
 8003214:	f000 f84f 	bl	80032b6 <USBD_CtlSendData>
 8003218:	e7ac      	b.n	8003174 <USBD_StdEPReq+0x46>
 800321a:	f8d2 2158 	ldr.w	r2, [r2, #344]	; 0x158
 800321e:	2a00      	cmp	r2, #0
 8003220:	d09e      	beq.n	8003160 <USBD_StdEPReq+0x32>
 8003222:	f001 057f 	and.w	r5, r1, #127	; 0x7f
 8003226:	fb03 0505 	mla	r5, r3, r5, r0
 800322a:	f505 75aa 	add.w	r5, r5, #340	; 0x154
 800322e:	e7dc      	b.n	80031ea <USBD_StdEPReq+0xbc>
 8003230:	4620      	mov	r0, r4
 8003232:	f002 f8cb 	bl	80053cc <USBD_LL_IsStallEP>
 8003236:	b108      	cbz	r0, 800323c <USBD_StdEPReq+0x10e>
 8003238:	2301      	movs	r3, #1
 800323a:	e7d9      	b.n	80031f0 <USBD_StdEPReq+0xc2>
 800323c:	6028      	str	r0, [r5, #0]
 800323e:	e7d8      	b.n	80031f2 <USBD_StdEPReq+0xc4>

08003240 <USBD_ParseSetupRequest>:
 8003240:	780b      	ldrb	r3, [r1, #0]
 8003242:	7003      	strb	r3, [r0, #0]
 8003244:	784b      	ldrb	r3, [r1, #1]
 8003246:	7043      	strb	r3, [r0, #1]
 8003248:	78ca      	ldrb	r2, [r1, #3]
 800324a:	788b      	ldrb	r3, [r1, #2]
 800324c:	eb03 2302 	add.w	r3, r3, r2, lsl #8
 8003250:	8043      	strh	r3, [r0, #2]
 8003252:	794a      	ldrb	r2, [r1, #5]
 8003254:	790b      	ldrb	r3, [r1, #4]
 8003256:	eb03 2302 	add.w	r3, r3, r2, lsl #8
 800325a:	8083      	strh	r3, [r0, #4]
 800325c:	79ca      	ldrb	r2, [r1, #7]
 800325e:	798b      	ldrb	r3, [r1, #6]
 8003260:	eb03 2302 	add.w	r3, r3, r2, lsl #8
 8003264:	80c3      	strh	r3, [r0, #6]
 8003266:	4770      	bx	lr

08003268 <USBD_CtlError>:
 8003268:	b510      	push	{r4, lr}
 800326a:	4604      	mov	r4, r0
 800326c:	2180      	movs	r1, #128	; 0x80
 800326e:	f002 f891 	bl	8005394 <USBD_LL_StallEP>
 8003272:	4620      	mov	r0, r4
 8003274:	e8bd 4010 	ldmia.w	sp!, {r4, lr}
 8003278:	2100      	movs	r1, #0
 800327a:	f002 b88b 	b.w	8005394 <USBD_LL_StallEP>

0800327e <USBD_GetString>:
 800327e:	b530      	push	{r4, r5, lr}
 8003280:	b188      	cbz	r0, 80032a6 <USBD_GetString+0x28>
 8003282:	4605      	mov	r5, r0
 8003284:	1a2b      	subs	r3, r5, r0
 8003286:	f815 4b01 	ldrb.w	r4, [r5], #1
 800328a:	b2db      	uxtb	r3, r3
 800328c:	2c00      	cmp	r4, #0
 800328e:	d1f9      	bne.n	8003284 <USBD_GetString+0x6>
 8003290:	3301      	adds	r3, #1
 8003292:	005b      	lsls	r3, r3, #1
 8003294:	8013      	strh	r3, [r2, #0]
 8003296:	700b      	strb	r3, [r1, #0]
 8003298:	2303      	movs	r3, #3
 800329a:	704b      	strb	r3, [r1, #1]
 800329c:	2302      	movs	r3, #2
 800329e:	3801      	subs	r0, #1
 80032a0:	f810 5f01 	ldrb.w	r5, [r0, #1]!
 80032a4:	b905      	cbnz	r5, 80032a8 <USBD_GetString+0x2a>
 80032a6:	bd30      	pop	{r4, r5, pc}
 80032a8:	1c5a      	adds	r2, r3, #1
 80032aa:	54cd      	strb	r5, [r1, r3]
 80032ac:	b2d2      	uxtb	r2, r2
 80032ae:	3302      	adds	r3, #2
 80032b0:	b2db      	uxtb	r3, r3
 80032b2:	548c      	strb	r4, [r1, r2]
 80032b4:	e7f4      	b.n	80032a0 <USBD_GetString+0x22>

080032b6 <USBD_CtlSendData>:
 80032b6:	4613      	mov	r3, r2
 80032b8:	2202      	movs	r2, #2
 80032ba:	b510      	push	{r4, lr}
 80032bc:	f8c0 2294 	str.w	r2, [r0, #660]	; 0x294
 80032c0:	e9c0 3307 	strd	r3, r3, [r0, #28]
 80032c4:	460a      	mov	r2, r1
 80032c6:	2100      	movs	r1, #0
 80032c8:	f002 f8a0 	bl	800540c <USBD_LL_Transmit>
 80032cc:	2000      	movs	r0, #0
 80032ce:	bd10      	pop	{r4, pc}

080032d0 <USBD_CtlContinueSendData>:
 80032d0:	b508      	push	{r3, lr}
 80032d2:	4613      	mov	r3, r2
 80032d4:	460a      	mov	r2, r1
 80032d6:	2100      	movs	r1, #0
 80032d8:	f002 f898 	bl	800540c <USBD_LL_Transmit>
 80032dc:	2000      	movs	r0, #0
 80032de:	bd08      	pop	{r3, pc}

080032e0 <USBD_CtlPrepareRx>:
 80032e0:	4613      	mov	r3, r2
 80032e2:	2203      	movs	r2, #3
 80032e4:	b510      	push	{r4, lr}
 80032e6:	f8c0 2294 	str.w	r2, [r0, #660]	; 0x294
 80032ea:	f8c0 315c 	str.w	r3, [r0, #348]	; 0x15c
 80032ee:	460a      	mov	r2, r1
 80032f0:	f8c0 3160 	str.w	r3, [r0, #352]	; 0x160
 80032f4:	2100      	movs	r1, #0
 80032f6:	f002 f897 	bl	8005428 <USBD_LL_PrepareReceive>
 80032fa:	2000      	movs	r0, #0
 80032fc:	bd10      	pop	{r4, pc}

080032fe <USBD_CtlContinueRx>:
 80032fe:	b508      	push	{r3, lr}
 8003300:	4613      	mov	r3, r2
 8003302:	460a      	mov	r2, r1
 8003304:	2100      	movs	r1, #0
 8003306:	f002 f88f 	bl	8005428 <USBD_LL_PrepareReceive>
 800330a:	2000      	movs	r0, #0
 800330c:	bd08      	pop	{r3, pc}

0800330e <USBD_CtlSendStatus>:
 800330e:	b508      	push	{r3, lr}
 8003310:	2304      	movs	r3, #4
 8003312:	f8c0 3294 	str.w	r3, [r0, #660]	; 0x294
 8003316:	2300      	movs	r3, #0
 8003318:	461a      	mov	r2, r3
 800331a:	4619      	mov	r1, r3
 800331c:	f002 f876 	bl	800540c <USBD_LL_Transmit>
 8003320:	2000      	movs	r0, #0
 8003322:	bd08      	pop	{r3, pc}

08003324 <USBD_CtlReceiveStatus>:
 8003324:	b508      	push	{r3, lr}
 8003326:	2305      	movs	r3, #5
 8003328:	f8c0 3294 	str.w	r3, [r0, #660]	; 0x294
 800332c:	2300      	movs	r3, #0
 800332e:	461a      	mov	r2, r3
 8003330:	4619      	mov	r1, r3
 8003332:	f002 f879 	bl	8005428 <USBD_LL_PrepareReceive>
 8003336:	2000      	movs	r0, #0
 8003338:	bd08      	pop	{r3, pc}
	...

0800333c <osKernelInitialize>:
 800333c:	f3ef 8305 	mrs	r3, IPSR
 8003340:	b113      	cbz	r3, 8003348 <osKernelInitialize+0xc>
 8003342:	f06f 0005 	mvn.w	r0, #5
 8003346:	4770      	bx	lr
 8003348:	f3ef 8310 	mrs	r3, PRIMASK
 800334c:	2b00      	cmp	r3, #0
 800334e:	d1f8      	bne.n	8003342 <osKernelInitialize+0x6>
 8003350:	4b07      	ldr	r3, [pc, #28]	; (8003370 <osKernelInitialize+0x34>)
 8003352:	6818      	ldr	r0, [r3, #0]
 8003354:	2802      	cmp	r0, #2
 8003356:	d106      	bne.n	8003366 <osKernelInitialize+0x2a>
 8003358:	f3ef 8311 	mrs	r3, BASEPRI
 800335c:	2b00      	cmp	r3, #0
 800335e:	d1f0      	bne.n	8003342 <osKernelInitialize+0x6>
 8003360:	f04f 30ff 	mov.w	r0, #4294967295
 8003364:	4770      	bx	lr
 8003366:	2800      	cmp	r0, #0
 8003368:	d1fa      	bne.n	8003360 <osKernelInitialize+0x24>
 800336a:	2201      	movs	r2, #1
 800336c:	601a      	str	r2, [r3, #0]
 800336e:	4770      	bx	lr
 8003370:	20000494 	.word	0x20000494

08003374 <osKernelStart>:
 8003374:	b510      	push	{r4, lr}
 8003376:	f3ef 8305 	mrs	r3, IPSR
 800337a:	b113      	cbz	r3, 8003382 <osKernelStart+0xe>
 800337c:	f06f 0005 	mvn.w	r0, #5
 8003380:	bd10      	pop	{r4, pc}
 8003382:	f3ef 8410 	mrs	r4, PRIMASK
 8003386:	2c00      	cmp	r4, #0
 8003388:	d1f8      	bne.n	800337c <osKernelStart+0x8>
 800338a:	4b09      	ldr	r3, [pc, #36]	; (80033b0 <osKernelStart+0x3c>)
 800338c:	681a      	ldr	r2, [r3, #0]
 800338e:	2a02      	cmp	r2, #2
 8003390:	d106      	bne.n	80033a0 <osKernelStart+0x2c>
 8003392:	f3ef 8311 	mrs	r3, BASEPRI
 8003396:	2b00      	cmp	r3, #0
 8003398:	d1f0      	bne.n	800337c <osKernelStart+0x8>
 800339a:	f04f 30ff 	mov.w	r0, #4294967295
 800339e:	e7ef      	b.n	8003380 <osKernelStart+0xc>
 80033a0:	2a01      	cmp	r2, #1
 80033a2:	d1fa      	bne.n	800339a <osKernelStart+0x26>
 80033a4:	2202      	movs	r2, #2
 80033a6:	601a      	str	r2, [r3, #0]
 80033a8:	f000 fe3e 	bl	8004028 <vTaskStartScheduler>
 80033ac:	4620      	mov	r0, r4
 80033ae:	e7e7      	b.n	8003380 <osKernelStart+0xc>
 80033b0:	20000494 	.word	0x20000494

080033b4 <osThreadNew>:
 80033b4:	b5f0      	push	{r4, r5, r6, r7, lr}
 80033b6:	4614      	mov	r4, r2
 80033b8:	2200      	movs	r2, #0
 80033ba:	b087      	sub	sp, #28
 80033bc:	460b      	mov	r3, r1
 80033be:	9205      	str	r2, [sp, #20]
 80033c0:	f3ef 8205 	mrs	r2, IPSR
 80033c4:	bb62      	cbnz	r2, 8003420 <osThreadNew+0x6c>
 80033c6:	f3ef 8210 	mrs	r2, PRIMASK
 80033ca:	bb4a      	cbnz	r2, 8003420 <osThreadNew+0x6c>
 80033cc:	4a26      	ldr	r2, [pc, #152]	; (8003468 <osThreadNew+0xb4>)
 80033ce:	6812      	ldr	r2, [r2, #0]
 80033d0:	2a02      	cmp	r2, #2
 80033d2:	d102      	bne.n	80033da <osThreadNew+0x26>
 80033d4:	f3ef 8211 	mrs	r2, BASEPRI
 80033d8:	bb12      	cbnz	r2, 8003420 <osThreadNew+0x6c>
 80033da:	b308      	cbz	r0, 8003420 <osThreadNew+0x6c>
 80033dc:	2200      	movs	r2, #0
 80033de:	f88d 2013 	strb.w	r2, [sp, #19]
 80033e2:	2c00      	cmp	r4, #0
 80033e4:	d039      	beq.n	800345a <osThreadNew+0xa6>
 80033e6:	6821      	ldr	r1, [r4, #0]
 80033e8:	b909      	cbnz	r1, 80033ee <osThreadNew+0x3a>
 80033ea:	f10d 0113 	add.w	r1, sp, #19
 80033ee:	69a5      	ldr	r5, [r4, #24]
 80033f0:	2d00      	cmp	r5, #0
 80033f2:	bf08      	it	eq
 80033f4:	2518      	moveq	r5, #24
 80033f6:	1e6a      	subs	r2, r5, #1
 80033f8:	2a37      	cmp	r2, #55	; 0x37
 80033fa:	462f      	mov	r7, r5
 80033fc:	d832      	bhi.n	8003464 <osThreadNew+0xb0>
 80033fe:	6862      	ldr	r2, [r4, #4]
 8003400:	07d2      	lsls	r2, r2, #31
 8003402:	d42f      	bmi.n	8003464 <osThreadNew+0xb0>
 8003404:	6966      	ldr	r6, [r4, #20]
 8003406:	b176      	cbz	r6, 8003426 <osThreadNew+0x72>
 8003408:	08b2      	lsrs	r2, r6, #2
 800340a:	e9d4 ce02 	ldrd	ip, lr, [r4, #8]
 800340e:	f1bc 0f00 	cmp.w	ip, #0
 8003412:	d00a      	beq.n	800342a <osThreadNew+0x76>
 8003414:	f1be 0f5b 	cmp.w	lr, #91	; 0x5b
 8003418:	d902      	bls.n	8003420 <osThreadNew+0x6c>
 800341a:	6924      	ldr	r4, [r4, #16]
 800341c:	b104      	cbz	r4, 8003420 <osThreadNew+0x6c>
 800341e:	b9ae      	cbnz	r6, 800344c <osThreadNew+0x98>
 8003420:	9805      	ldr	r0, [sp, #20]
 8003422:	b007      	add	sp, #28
 8003424:	bdf0      	pop	{r4, r5, r6, r7, pc}
 8003426:	2280      	movs	r2, #128	; 0x80
 8003428:	e7ef      	b.n	800340a <osThreadNew+0x56>
 800342a:	f1be 0f00 	cmp.w	lr, #0
 800342e:	d1f7      	bne.n	8003420 <osThreadNew+0x6c>
 8003430:	6924      	ldr	r4, [r4, #16]
 8003432:	2c00      	cmp	r4, #0
 8003434:	d1f4      	bne.n	8003420 <osThreadNew+0x6c>
 8003436:	ac05      	add	r4, sp, #20
 8003438:	e9cd 7400 	strd	r7, r4, [sp]
 800343c:	b292      	uxth	r2, r2
 800343e:	f000 fdc6 	bl	8003fce <xTaskCreate>
 8003442:	2801      	cmp	r0, #1
 8003444:	bf1c      	itt	ne
 8003446:	2300      	movne	r3, #0
 8003448:	9305      	strne	r3, [sp, #20]
 800344a:	e7e9      	b.n	8003420 <osThreadNew+0x6c>
 800344c:	e9cd 4c01 	strd	r4, ip, [sp, #4]
 8003450:	9500      	str	r5, [sp, #0]
 8003452:	f000 fd85 	bl	8003f60 <xTaskCreateStatic>
 8003456:	9005      	str	r0, [sp, #20]
 8003458:	e7e2      	b.n	8003420 <osThreadNew+0x6c>
 800345a:	2718      	movs	r7, #24
 800345c:	2280      	movs	r2, #128	; 0x80
 800345e:	f10d 0113 	add.w	r1, sp, #19
 8003462:	e7e8      	b.n	8003436 <osThreadNew+0x82>
 8003464:	2000      	movs	r0, #0
 8003466:	e7dc      	b.n	8003422 <osThreadNew+0x6e>
 8003468:	20000494 	.word	0x20000494

0800346c <osThreadFlagsSet>:
 800346c:	b57f      	push	{r0, r1, r2, r3, r4, r5, r6, lr}
 800346e:	4604      	mov	r4, r0
 8003470:	b108      	cbz	r0, 8003476 <osThreadFlagsSet+0xa>
 8003472:	2900      	cmp	r1, #0
 8003474:	da05      	bge.n	8003482 <osThreadFlagsSet+0x16>
 8003476:	f06f 0303 	mvn.w	r3, #3
 800347a:	9302      	str	r3, [sp, #8]
 800347c:	9802      	ldr	r0, [sp, #8]
 800347e:	b004      	add	sp, #16
 8003480:	bd70      	pop	{r4, r5, r6, pc}
 8003482:	f04f 33ff 	mov.w	r3, #4294967295
 8003486:	ad04      	add	r5, sp, #16
 8003488:	f845 3d08 	str.w	r3, [r5, #-8]!
 800348c:	f3ef 8305 	mrs	r3, IPSR
 8003490:	b1e3      	cbz	r3, 80034cc <osThreadFlagsSet+0x60>
 8003492:	2600      	movs	r6, #0
 8003494:	ab04      	add	r3, sp, #16
 8003496:	f843 6d04 	str.w	r6, [r3, #-4]!
 800349a:	9300      	str	r3, [sp, #0]
 800349c:	2201      	movs	r2, #1
 800349e:	4633      	mov	r3, r6
 80034a0:	4620      	mov	r0, r4
 80034a2:	f001 f93b 	bl	800471c <xTaskGenericNotifyFromISR>
 80034a6:	462b      	mov	r3, r5
 80034a8:	9600      	str	r6, [sp, #0]
 80034aa:	4632      	mov	r2, r6
 80034ac:	4631      	mov	r1, r6
 80034ae:	4620      	mov	r0, r4
 80034b0:	f001 f934 	bl	800471c <xTaskGenericNotifyFromISR>
 80034b4:	9b03      	ldr	r3, [sp, #12]
 80034b6:	2b00      	cmp	r3, #0
 80034b8:	d0e0      	beq.n	800347c <osThreadFlagsSet+0x10>
 80034ba:	f04f 5280 	mov.w	r2, #268435456	; 0x10000000
 80034be:	4b0f      	ldr	r3, [pc, #60]	; (80034fc <osThreadFlagsSet+0x90>)
 80034c0:	601a      	str	r2, [r3, #0]
 80034c2:	f3bf 8f4f 	dsb	sy
 80034c6:	f3bf 8f6f 	isb	sy
 80034ca:	e7d7      	b.n	800347c <osThreadFlagsSet+0x10>
 80034cc:	f3ef 8310 	mrs	r3, PRIMASK
 80034d0:	2b00      	cmp	r3, #0
 80034d2:	d1de      	bne.n	8003492 <osThreadFlagsSet+0x26>
 80034d4:	4b0a      	ldr	r3, [pc, #40]	; (8003500 <osThreadFlagsSet+0x94>)
 80034d6:	681b      	ldr	r3, [r3, #0]
 80034d8:	2b02      	cmp	r3, #2
 80034da:	d103      	bne.n	80034e4 <osThreadFlagsSet+0x78>
 80034dc:	f3ef 8311 	mrs	r3, BASEPRI
 80034e0:	2b00      	cmp	r3, #0
 80034e2:	d1d6      	bne.n	8003492 <osThreadFlagsSet+0x26>
 80034e4:	2300      	movs	r3, #0
 80034e6:	2201      	movs	r2, #1
 80034e8:	4620      	mov	r0, r4
 80034ea:	f001 f8b1 	bl	8004650 <xTaskGenericNotify>
 80034ee:	2200      	movs	r2, #0
 80034f0:	462b      	mov	r3, r5
 80034f2:	4611      	mov	r1, r2
 80034f4:	4620      	mov	r0, r4
 80034f6:	f001 f8ab 	bl	8004650 <xTaskGenericNotify>
 80034fa:	e7bf      	b.n	800347c <osThreadFlagsSet+0x10>
 80034fc:	e000ed04 	.word	0xe000ed04
 8003500:	20000494 	.word	0x20000494

08003504 <osThreadFlagsWait>:
 8003504:	e92d 4ff7 	stmdb	sp!, {r0, r1, r2, r4, r5, r6, r7, r8, r9, sl, fp, lr}
 8003508:	4606      	mov	r6, r0
 800350a:	4689      	mov	r9, r1
 800350c:	4617      	mov	r7, r2
 800350e:	f3ef 8305 	mrs	r3, IPSR
 8003512:	b12b      	cbz	r3, 8003520 <osThreadFlagsWait+0x1c>
 8003514:	f06f 0405 	mvn.w	r4, #5
 8003518:	4620      	mov	r0, r4
 800351a:	b003      	add	sp, #12
 800351c:	e8bd 8ff0 	ldmia.w	sp!, {r4, r5, r6, r7, r8, r9, sl, fp, pc}
 8003520:	f3ef 8410 	mrs	r4, PRIMASK
 8003524:	2c00      	cmp	r4, #0
 8003526:	d1f5      	bne.n	8003514 <osThreadFlagsWait+0x10>
 8003528:	4b21      	ldr	r3, [pc, #132]	; (80035b0 <osThreadFlagsWait+0xac>)
 800352a:	681b      	ldr	r3, [r3, #0]
 800352c:	2b02      	cmp	r3, #2
 800352e:	d103      	bne.n	8003538 <osThreadFlagsWait+0x34>
 8003530:	f3ef 8311 	mrs	r3, BASEPRI
 8003534:	2b00      	cmp	r3, #0
 8003536:	d1ed      	bne.n	8003514 <osThreadFlagsWait+0x10>
 8003538:	2e00      	cmp	r6, #0
 800353a:	db33      	blt.n	80035a4 <osThreadFlagsWait+0xa0>
 800353c:	f019 0f02 	tst.w	r9, #2
 8003540:	bf0c      	ite	eq
 8003542:	46b2      	moveq	sl, r6
 8003544:	f04f 0a00 	movne.w	sl, #0
 8003548:	f000 fdba 	bl	80040c0 <xTaskGetTickCount>
 800354c:	2f00      	cmp	r7, #0
 800354e:	4683      	mov	fp, r0
 8003550:	bf0c      	ite	eq
 8003552:	f06f 0802 	mvneq.w	r8, #2
 8003556:	f06f 0801 	mvnne.w	r8, #1
 800355a:	463d      	mov	r5, r7
 800355c:	462b      	mov	r3, r5
 800355e:	aa01      	add	r2, sp, #4
 8003560:	4651      	mov	r1, sl
 8003562:	2000      	movs	r0, #0
 8003564:	f001 f830 	bl	80045c8 <xTaskNotifyWait>
 8003568:	2801      	cmp	r0, #1
 800356a:	d117      	bne.n	800359c <osThreadFlagsWait+0x98>
 800356c:	9b01      	ldr	r3, [sp, #4]
 800356e:	4034      	ands	r4, r6
 8003570:	431c      	orrs	r4, r3
 8003572:	f019 0f01 	tst.w	r9, #1
 8003576:	ea06 0304 	and.w	r3, r6, r4
 800357a:	d00c      	beq.n	8003596 <osThreadFlagsWait+0x92>
 800357c:	429e      	cmp	r6, r3
 800357e:	d0cb      	beq.n	8003518 <osThreadFlagsWait+0x14>
 8003580:	b19f      	cbz	r7, 80035aa <osThreadFlagsWait+0xa6>
 8003582:	f000 fd9d 	bl	80040c0 <xTaskGetTickCount>
 8003586:	eba0 000b 	sub.w	r0, r0, fp
 800358a:	4285      	cmp	r5, r0
 800358c:	d301      	bcc.n	8003592 <osThreadFlagsWait+0x8e>
 800358e:	1a2d      	subs	r5, r5, r0
 8003590:	e7e4      	b.n	800355c <osThreadFlagsWait+0x58>
 8003592:	2500      	movs	r5, #0
 8003594:	e7e2      	b.n	800355c <osThreadFlagsWait+0x58>
 8003596:	2b00      	cmp	r3, #0
 8003598:	d0f2      	beq.n	8003580 <osThreadFlagsWait+0x7c>
 800359a:	e7bd      	b.n	8003518 <osThreadFlagsWait+0x14>
 800359c:	4644      	mov	r4, r8
 800359e:	2800      	cmp	r0, #0
 80035a0:	d1dc      	bne.n	800355c <osThreadFlagsWait+0x58>
 80035a2:	e7b9      	b.n	8003518 <osThreadFlagsWait+0x14>
 80035a4:	f06f 0403 	mvn.w	r4, #3
 80035a8:	e7b6      	b.n	8003518 <osThreadFlagsWait+0x14>
 80035aa:	f06f 0402 	mvn.w	r4, #2
 80035ae:	e7b3      	b.n	8003518 <osThreadFlagsWait+0x14>
 80035b0:	20000494 	.word	0x20000494

080035b4 <osDelay>:
 80035b4:	b508      	push	{r3, lr}
 80035b6:	f3ef 8305 	mrs	r3, IPSR
 80035ba:	b113      	cbz	r3, 80035c2 <osDelay+0xe>
 80035bc:	f06f 0005 	mvn.w	r0, #5
 80035c0:	bd08      	pop	{r3, pc}
 80035c2:	f3ef 8310 	mrs	r3, PRIMASK
 80035c6:	2b00      	cmp	r3, #0
 80035c8:	d1f8      	bne.n	80035bc <osDelay+0x8>
 80035ca:	4b07      	ldr	r3, [pc, #28]	; (80035e8 <osDelay+0x34>)
 80035cc:	681b      	ldr	r3, [r3, #0]
 80035ce:	2b02      	cmp	r3, #2
 80035d0:	d103      	bne.n	80035da <osDelay+0x26>
 80035d2:	f3ef 8311 	mrs	r3, BASEPRI
 80035d6:	2b00      	cmp	r3, #0
 80035d8:	d1f0      	bne.n	80035bc <osDelay+0x8>
 80035da:	2800      	cmp	r0, #0
 80035dc:	d0f0      	beq.n	80035c0 <osDelay+0xc>
 80035de:	f000 fe79 	bl	80042d4 <vTaskDelay>
 80035e2:	2000      	movs	r0, #0
 80035e4:	e7ec      	b.n	80035c0 <osDelay+0xc>
 80035e6:	bf00      	nop
 80035e8:	20000494 	.word	0x20000494

080035ec <vApplicationGetIdleTaskMemory>:
 80035ec:	4b03      	ldr	r3, [pc, #12]	; (80035fc <vApplicationGetIdleTaskMemory+0x10>)
 80035ee:	6003      	str	r3, [r0, #0]
 80035f0:	4b03      	ldr	r3, [pc, #12]	; (8003600 <vApplicationGetIdleTaskMemory+0x14>)
 80035f2:	600b      	str	r3, [r1, #0]
 80035f4:	2380      	movs	r3, #128	; 0x80
 80035f6:	6013      	str	r3, [r2, #0]
 80035f8:	4770      	bx	lr
 80035fa:	bf00      	nop
 80035fc:	20000438 	.word	0x20000438
 8003600:	20000238 	.word	0x20000238

08003604 <vApplicationGetTimerTaskMemory>:
 8003604:	4b03      	ldr	r3, [pc, #12]	; (8003614 <vApplicationGetTimerTaskMemory+0x10>)
 8003606:	6003      	str	r3, [r0, #0]
 8003608:	4b03      	ldr	r3, [pc, #12]	; (8003618 <vApplicationGetTimerTaskMemory+0x14>)
 800360a:	600b      	str	r3, [r1, #0]
 800360c:	f44f 7380 	mov.w	r3, #256	; 0x100
 8003610:	6013      	str	r3, [r2, #0]
 8003612:	4770      	bx	lr
 8003614:	20000898 	.word	0x20000898
 8003618:	20000498 	.word	0x20000498

0800361c <vListInitialise>:
 800361c:	f04f 32ff 	mov.w	r2, #4294967295
 8003620:	f100 0308 	add.w	r3, r0, #8
 8003624:	6043      	str	r3, [r0, #4]
 8003626:	e9c0 2302 	strd	r2, r3, [r0, #8]
 800362a:	6103      	str	r3, [r0, #16]
 800362c:	2300      	movs	r3, #0
 800362e:	6003      	str	r3, [r0, #0]
 8003630:	4770      	bx	lr

08003632 <vListInitialiseItem>:
 8003632:	2300      	movs	r3, #0
 8003634:	6103      	str	r3, [r0, #16]
 8003636:	4770      	bx	lr

08003638 <vListInsertEnd>:
 8003638:	6843      	ldr	r3, [r0, #4]
 800363a:	689a      	ldr	r2, [r3, #8]
 800363c:	604b      	str	r3, [r1, #4]
 800363e:	608a      	str	r2, [r1, #8]
 8003640:	689a      	ldr	r2, [r3, #8]
 8003642:	6051      	str	r1, [r2, #4]
 8003644:	6099      	str	r1, [r3, #8]
 8003646:	6803      	ldr	r3, [r0, #0]
 8003648:	6108      	str	r0, [r1, #16]
 800364a:	3301      	adds	r3, #1
 800364c:	6003      	str	r3, [r0, #0]
 800364e:	4770      	bx	lr

08003650 <vListInsert>:
 8003650:	680a      	ldr	r2, [r1, #0]
 8003652:	b530      	push	{r4, r5, lr}
 8003654:	1c53      	adds	r3, r2, #1
 8003656:	d10a      	bne.n	800366e <vListInsert+0x1e>
 8003658:	6903      	ldr	r3, [r0, #16]
 800365a:	685a      	ldr	r2, [r3, #4]
 800365c:	604a      	str	r2, [r1, #4]
 800365e:	6091      	str	r1, [r2, #8]
 8003660:	608b      	str	r3, [r1, #8]
 8003662:	6059      	str	r1, [r3, #4]
 8003664:	6803      	ldr	r3, [r0, #0]
 8003666:	6108      	str	r0, [r1, #16]
 8003668:	3301      	adds	r3, #1
 800366a:	6003      	str	r3, [r0, #0]
 800366c:	bd30      	pop	{r4, r5, pc}
 800366e:	f100 0308 	add.w	r3, r0, #8
 8003672:	685c      	ldr	r4, [r3, #4]
 8003674:	6825      	ldr	r5, [r4, #0]
 8003676:	4295      	cmp	r5, r2
 8003678:	d8ef      	bhi.n	800365a <vListInsert+0xa>
 800367a:	4623      	mov	r3, r4
 800367c:	e7f9      	b.n	8003672 <vListInsert+0x22>

0800367e <uxListRemove>:
 800367e:	6903      	ldr	r3, [r0, #16]
 8003680:	e9d0 1201 	ldrd	r1, r2, [r0, #4]
 8003684:	608a      	str	r2, [r1, #8]
 8003686:	6882      	ldr	r2, [r0, #8]
 8003688:	6051      	str	r1, [r2, #4]
 800368a:	6859      	ldr	r1, [r3, #4]
 800368c:	4281      	cmp	r1, r0
 800368e:	bf08      	it	eq
 8003690:	605a      	streq	r2, [r3, #4]
 8003692:	2200      	movs	r2, #0
 8003694:	6102      	str	r2, [r0, #16]
 8003696:	681a      	ldr	r2, [r3, #0]
 8003698:	3a01      	subs	r2, #1
 800369a:	601a      	str	r2, [r3, #0]
 800369c:	6818      	ldr	r0, [r3, #0]
 800369e:	4770      	bx	lr

080036a0 <prvIsQueueEmpty>:
 80036a0:	b510      	push	{r4, lr}
 80036a2:	4604      	mov	r4, r0
 80036a4:	f001 fae6 	bl	8004c74 <vPortEnterCritical>
 80036a8:	6ba4      	ldr	r4, [r4, #56]	; 0x38
 80036aa:	f001 fb05 	bl	8004cb8 <vPortExitCritical>
 80036ae:	fab4 f084 	clz	r0, r4
 80036b2:	0940      	lsrs	r0, r0, #5
 80036b4:	bd10      	pop	{r4, pc}

080036b6 <prvCopyDataToQueue>:
 80036b6:	b570      	push	{r4, r5, r6, lr}
 80036b8:	4615      	mov	r5, r2
 80036ba:	6c02      	ldr	r2, [r0, #64]	; 0x40
 80036bc:	4604      	mov	r4, r0
 80036be:	6b86      	ldr	r6, [r0, #56]	; 0x38
 80036c0:	b942      	cbnz	r2, 80036d4 <prvCopyDataToQueue+0x1e>
 80036c2:	6805      	ldr	r5, [r0, #0]
 80036c4:	b99d      	cbnz	r5, 80036ee <prvCopyDataToQueue+0x38>
 80036c6:	6840      	ldr	r0, [r0, #4]
 80036c8:	f000 ff3c 	bl	8004544 <xTaskPriorityDisinherit>
 80036cc:	6065      	str	r5, [r4, #4]
 80036ce:	3601      	adds	r6, #1
 80036d0:	63a6      	str	r6, [r4, #56]	; 0x38
 80036d2:	bd70      	pop	{r4, r5, r6, pc}
 80036d4:	b96d      	cbnz	r5, 80036f2 <prvCopyDataToQueue+0x3c>
 80036d6:	6880      	ldr	r0, [r0, #8]
 80036d8:	f001 fee2 	bl	80054a0 <memcpy>
 80036dc:	68a3      	ldr	r3, [r4, #8]
 80036de:	6c22      	ldr	r2, [r4, #64]	; 0x40
 80036e0:	4413      	add	r3, r2
 80036e2:	6862      	ldr	r2, [r4, #4]
 80036e4:	60a3      	str	r3, [r4, #8]
 80036e6:	4293      	cmp	r3, r2
 80036e8:	d301      	bcc.n	80036ee <prvCopyDataToQueue+0x38>
 80036ea:	6823      	ldr	r3, [r4, #0]
 80036ec:	60a3      	str	r3, [r4, #8]
 80036ee:	2000      	movs	r0, #0
 80036f0:	e7ed      	b.n	80036ce <prvCopyDataToQueue+0x18>
 80036f2:	68c0      	ldr	r0, [r0, #12]
 80036f4:	f001 fed4 	bl	80054a0 <memcpy>
 80036f8:	6c23      	ldr	r3, [r4, #64]	; 0x40
 80036fa:	68e2      	ldr	r2, [r4, #12]
 80036fc:	425b      	negs	r3, r3
 80036fe:	6821      	ldr	r1, [r4, #0]
 8003700:	441a      	add	r2, r3
 8003702:	428a      	cmp	r2, r1
 8003704:	60e2      	str	r2, [r4, #12]
 8003706:	bf3e      	ittt	cc
 8003708:	6862      	ldrcc	r2, [r4, #4]
 800370a:	189b      	addcc	r3, r3, r2
 800370c:	60e3      	strcc	r3, [r4, #12]
 800370e:	2d02      	cmp	r5, #2
 8003710:	d1ed      	bne.n	80036ee <prvCopyDataToQueue+0x38>
 8003712:	b10e      	cbz	r6, 8003718 <prvCopyDataToQueue+0x62>
 8003714:	3e01      	subs	r6, #1
 8003716:	e7ea      	b.n	80036ee <prvCopyDataToQueue+0x38>
 8003718:	4630      	mov	r0, r6
 800371a:	e7d8      	b.n	80036ce <prvCopyDataToQueue+0x18>

0800371c <prvCopyDataFromQueue>:
 800371c:	4603      	mov	r3, r0
 800371e:	6c1a      	ldr	r2, [r3, #64]	; 0x40
 8003720:	b410      	push	{r4}
 8003722:	4608      	mov	r0, r1
 8003724:	b162      	cbz	r2, 8003740 <prvCopyDataFromQueue+0x24>
 8003726:	68d9      	ldr	r1, [r3, #12]
 8003728:	685c      	ldr	r4, [r3, #4]
 800372a:	4411      	add	r1, r2
 800372c:	42a1      	cmp	r1, r4
 800372e:	60d9      	str	r1, [r3, #12]
 8003730:	bf28      	it	cs
 8003732:	6819      	ldrcs	r1, [r3, #0]
 8003734:	bc10      	pop	{r4}
 8003736:	bf28      	it	cs
 8003738:	60d9      	strcs	r1, [r3, #12]
 800373a:	68d9      	ldr	r1, [r3, #12]
 800373c:	f001 beb0 	b.w	80054a0 <memcpy>
 8003740:	bc10      	pop	{r4}
 8003742:	4770      	bx	lr

08003744 <prvUnlockQueue>:
 8003744:	b570      	push	{r4, r5, r6, lr}
 8003746:	4604      	mov	r4, r0
 8003748:	f001 fa94 	bl	8004c74 <vPortEnterCritical>
 800374c:	f894 5045 	ldrb.w	r5, [r4, #69]	; 0x45
 8003750:	f104 0624 	add.w	r6, r4, #36	; 0x24
 8003754:	b26d      	sxtb	r5, r5
 8003756:	2d00      	cmp	r5, #0
 8003758:	dc14      	bgt.n	8003784 <prvUnlockQueue+0x40>
 800375a:	23ff      	movs	r3, #255	; 0xff
 800375c:	f884 3045 	strb.w	r3, [r4, #69]	; 0x45
 8003760:	f001 faaa 	bl	8004cb8 <vPortExitCritical>
 8003764:	f001 fa86 	bl	8004c74 <vPortEnterCritical>
 8003768:	f894 5044 	ldrb.w	r5, [r4, #68]	; 0x44
 800376c:	f104 0610 	add.w	r6, r4, #16
 8003770:	b26d      	sxtb	r5, r5
 8003772:	2d00      	cmp	r5, #0
 8003774:	dc12      	bgt.n	800379c <prvUnlockQueue+0x58>
 8003776:	23ff      	movs	r3, #255	; 0xff
 8003778:	f884 3044 	strb.w	r3, [r4, #68]	; 0x44
 800377c:	e8bd 4070 	ldmia.w	sp!, {r4, r5, r6, lr}
 8003780:	f001 ba9a 	b.w	8004cb8 <vPortExitCritical>
 8003784:	6a63      	ldr	r3, [r4, #36]	; 0x24
 8003786:	2b00      	cmp	r3, #0
 8003788:	d0e7      	beq.n	800375a <prvUnlockQueue+0x16>
 800378a:	4630      	mov	r0, r6
 800378c:	f000 fe3c 	bl	8004408 <xTaskRemoveFromEventList>
 8003790:	b108      	cbz	r0, 8003796 <prvUnlockQueue+0x52>
 8003792:	f000 fec1 	bl	8004518 <vTaskMissedYield>
 8003796:	3d01      	subs	r5, #1
 8003798:	b26d      	sxtb	r5, r5
 800379a:	e7dc      	b.n	8003756 <prvUnlockQueue+0x12>
 800379c:	6923      	ldr	r3, [r4, #16]
 800379e:	2b00      	cmp	r3, #0
 80037a0:	d0e9      	beq.n	8003776 <prvUnlockQueue+0x32>
 80037a2:	4630      	mov	r0, r6
 80037a4:	f000 fe30 	bl	8004408 <xTaskRemoveFromEventList>
 80037a8:	b108      	cbz	r0, 80037ae <prvUnlockQueue+0x6a>
 80037aa:	f000 feb5 	bl	8004518 <vTaskMissedYield>
 80037ae:	3d01      	subs	r5, #1
 80037b0:	b26d      	sxtb	r5, r5
 80037b2:	e7de      	b.n	8003772 <prvUnlockQueue+0x2e>

080037b4 <xQueueGenericReset>:
 80037b4:	b538      	push	{r3, r4, r5, lr}
 80037b6:	460d      	mov	r5, r1
 80037b8:	4604      	mov	r4, r0
 80037ba:	b940      	cbnz	r0, 80037ce <xQueueGenericReset+0x1a>
 80037bc:	f04f 0350 	mov.w	r3, #80	; 0x50
 80037c0:	f383 8811 	msr	BASEPRI, r3
 80037c4:	f3bf 8f6f 	isb	sy
 80037c8:	f3bf 8f4f 	dsb	sy
 80037cc:	e7fe      	b.n	80037cc <xQueueGenericReset+0x18>
 80037ce:	f001 fa51 	bl	8004c74 <vPortEnterCritical>
 80037d2:	e9d4 300f 	ldrd	r3, r0, [r4, #60]	; 0x3c
 80037d6:	4343      	muls	r3, r0
 80037d8:	6822      	ldr	r2, [r4, #0]
 80037da:	18d1      	adds	r1, r2, r3
 80037dc:	1a1b      	subs	r3, r3, r0
 80037de:	4413      	add	r3, r2
 80037e0:	6061      	str	r1, [r4, #4]
 80037e2:	60e3      	str	r3, [r4, #12]
 80037e4:	2100      	movs	r1, #0
 80037e6:	23ff      	movs	r3, #255	; 0xff
 80037e8:	63a1      	str	r1, [r4, #56]	; 0x38
 80037ea:	60a2      	str	r2, [r4, #8]
 80037ec:	f884 3044 	strb.w	r3, [r4, #68]	; 0x44
 80037f0:	f884 3045 	strb.w	r3, [r4, #69]	; 0x45
 80037f4:	b995      	cbnz	r5, 800381c <xQueueGenericReset+0x68>
 80037f6:	6923      	ldr	r3, [r4, #16]
 80037f8:	b163      	cbz	r3, 8003814 <xQueueGenericReset+0x60>
 80037fa:	f104 0010 	add.w	r0, r4, #16
 80037fe:	f000 fe03 	bl	8004408 <xTaskRemoveFromEventList>
 8003802:	b138      	cbz	r0, 8003814 <xQueueGenericReset+0x60>
 8003804:	f04f 5280 	mov.w	r2, #268435456	; 0x10000000
 8003808:	4b09      	ldr	r3, [pc, #36]	; (8003830 <xQueueGenericReset+0x7c>)
 800380a:	601a      	str	r2, [r3, #0]
 800380c:	f3bf 8f4f 	dsb	sy
 8003810:	f3bf 8f6f 	isb	sy
 8003814:	f001 fa50 	bl	8004cb8 <vPortExitCritical>
 8003818:	2001      	movs	r0, #1
 800381a:	bd38      	pop	{r3, r4, r5, pc}
 800381c:	f104 0010 	add.w	r0, r4, #16
 8003820:	f7ff fefc 	bl	800361c <vListInitialise>
 8003824:	f104 0024 	add.w	r0, r4, #36	; 0x24
 8003828:	f7ff fef8 	bl	800361c <vListInitialise>
 800382c:	e7f2      	b.n	8003814 <xQueueGenericReset+0x60>
 800382e:	bf00      	nop
 8003830:	e000ed04 	.word	0xe000ed04

08003834 <xQueueGenericCreateStatic>:
 8003834:	b513      	push	{r0, r1, r4, lr}
 8003836:	461c      	mov	r4, r3
 8003838:	b940      	cbnz	r0, 800384c <xQueueGenericCreateStatic+0x18>
 800383a:	f04f 0350 	mov.w	r3, #80	; 0x50
 800383e:	f383 8811 	msr	BASEPRI, r3
 8003842:	f3bf 8f6f 	isb	sy
 8003846:	f3bf 8f4f 	dsb	sy
 800384a:	e7fe      	b.n	800384a <xQueueGenericCreateStatic+0x16>
 800384c:	b943      	cbnz	r3, 8003860 <xQueueGenericCreateStatic+0x2c>
 800384e:	f04f 0350 	mov.w	r3, #80	; 0x50
 8003852:	f383 8811 	msr	BASEPRI, r3
 8003856:	f3bf 8f6f 	isb	sy
 800385a:	f3bf 8f4f 	dsb	sy
 800385e:	e7fe      	b.n	800385e <xQueueGenericCreateStatic+0x2a>
 8003860:	b14a      	cbz	r2, 8003876 <xQueueGenericCreateStatic+0x42>
 8003862:	b991      	cbnz	r1, 800388a <xQueueGenericCreateStatic+0x56>
 8003864:	f04f 0350 	mov.w	r3, #80	; 0x50
 8003868:	f383 8811 	msr	BASEPRI, r3
 800386c:	f3bf 8f6f 	isb	sy
 8003870:	f3bf 8f4f 	dsb	sy
 8003874:	e7fe      	b.n	8003874 <xQueueGenericCreateStatic+0x40>
 8003876:	b141      	cbz	r1, 800388a <xQueueGenericCreateStatic+0x56>
 8003878:	f04f 0350 	mov.w	r3, #80	; 0x50
 800387c:	f383 8811 	msr	BASEPRI, r3
 8003880:	f3bf 8f6f 	isb	sy
 8003884:	f3bf 8f4f 	dsb	sy
 8003888:	e7fe      	b.n	8003888 <xQueueGenericCreateStatic+0x54>
 800388a:	2350      	movs	r3, #80	; 0x50
 800388c:	9301      	str	r3, [sp, #4]
 800388e:	9b01      	ldr	r3, [sp, #4]
 8003890:	2b50      	cmp	r3, #80	; 0x50
 8003892:	d008      	beq.n	80038a6 <xQueueGenericCreateStatic+0x72>
 8003894:	f04f 0350 	mov.w	r3, #80	; 0x50
 8003898:	f383 8811 	msr	BASEPRI, r3
 800389c:	f3bf 8f6f 	isb	sy
 80038a0:	f3bf 8f4f 	dsb	sy
 80038a4:	e7fe      	b.n	80038a4 <xQueueGenericCreateStatic+0x70>
 80038a6:	2301      	movs	r3, #1
 80038a8:	2900      	cmp	r1, #0
 80038aa:	bf08      	it	eq
 80038ac:	4622      	moveq	r2, r4
 80038ae:	e9c4 010f 	strd	r0, r1, [r4, #60]	; 0x3c
 80038b2:	f884 3046 	strb.w	r3, [r4, #70]	; 0x46
 80038b6:	4619      	mov	r1, r3
 80038b8:	6022      	str	r2, [r4, #0]
 80038ba:	4620      	mov	r0, r4
 80038bc:	f7ff ff7a 	bl	80037b4 <xQueueGenericReset>
 80038c0:	4620      	mov	r0, r4
 80038c2:	f89d 3010 	ldrb.w	r3, [sp, #16]
 80038c6:	f884 304c 	strb.w	r3, [r4, #76]	; 0x4c
 80038ca:	b002      	add	sp, #8
 80038cc:	bd10      	pop	{r4, pc}
	...

080038d0 <xQueueGenericSend>:
 80038d0:	e92d 47ff 	stmdb	sp!, {r0, r1, r2, r3, r4, r5, r6, r7, r8, r9, sl, lr}
 80038d4:	4688      	mov	r8, r1
 80038d6:	9201      	str	r2, [sp, #4]
 80038d8:	461f      	mov	r7, r3
 80038da:	4604      	mov	r4, r0
 80038dc:	b940      	cbnz	r0, 80038f0 <xQueueGenericSend+0x20>
 80038de:	f04f 0350 	mov.w	r3, #80	; 0x50
 80038e2:	f383 8811 	msr	BASEPRI, r3
 80038e6:	f3bf 8f6f 	isb	sy
 80038ea:	f3bf 8f4f 	dsb	sy
 80038ee:	e7fe      	b.n	80038ee <xQueueGenericSend+0x1e>
 80038f0:	b951      	cbnz	r1, 8003908 <xQueueGenericSend+0x38>
 80038f2:	6c03      	ldr	r3, [r0, #64]	; 0x40
 80038f4:	b143      	cbz	r3, 8003908 <xQueueGenericSend+0x38>
 80038f6:	f04f 0350 	mov.w	r3, #80	; 0x50
 80038fa:	f383 8811 	msr	BASEPRI, r3
 80038fe:	f3bf 8f6f 	isb	sy
 8003902:	f3bf 8f4f 	dsb	sy
 8003906:	e7fe      	b.n	8003906 <xQueueGenericSend+0x36>
 8003908:	2f02      	cmp	r7, #2
 800390a:	d10b      	bne.n	8003924 <xQueueGenericSend+0x54>
 800390c:	6be3      	ldr	r3, [r4, #60]	; 0x3c
 800390e:	2b01      	cmp	r3, #1
 8003910:	d008      	beq.n	8003924 <xQueueGenericSend+0x54>
 8003912:	f04f 0350 	mov.w	r3, #80	; 0x50
 8003916:	f383 8811 	msr	BASEPRI, r3
 800391a:	f3bf 8f6f 	isb	sy
 800391e:	f3bf 8f4f 	dsb	sy
 8003922:	e7fe      	b.n	8003922 <xQueueGenericSend+0x52>
 8003924:	f000 fdfe 	bl	8004524 <xTaskGetSchedulerState>
 8003928:	b950      	cbnz	r0, 8003940 <xQueueGenericSend+0x70>
 800392a:	9e01      	ldr	r6, [sp, #4]
 800392c:	b14e      	cbz	r6, 8003942 <xQueueGenericSend+0x72>
 800392e:	f04f 0350 	mov.w	r3, #80	; 0x50
 8003932:	f383 8811 	msr	BASEPRI, r3
 8003936:	f3bf 8f6f 	isb	sy
 800393a:	f3bf 8f4f 	dsb	sy
 800393e:	e7fe      	b.n	800393e <xQueueGenericSend+0x6e>
 8003940:	2600      	movs	r6, #0
 8003942:	f04f 0900 	mov.w	r9, #0
 8003946:	f8df a0e8 	ldr.w	sl, [pc, #232]	; 8003a30 <xQueueGenericSend+0x160>
 800394a:	e037      	b.n	80039bc <xQueueGenericSend+0xec>
 800394c:	9d01      	ldr	r5, [sp, #4]
 800394e:	b91d      	cbnz	r5, 8003958 <xQueueGenericSend+0x88>
 8003950:	f001 f9b2 	bl	8004cb8 <vPortExitCritical>
 8003954:	2000      	movs	r0, #0
 8003956:	e050      	b.n	80039fa <xQueueGenericSend+0x12a>
 8003958:	b916      	cbnz	r6, 8003960 <xQueueGenericSend+0x90>
 800395a:	a802      	add	r0, sp, #8
 800395c:	f000 fd94 	bl	8004488 <vTaskInternalSetTimeOutState>
 8003960:	f001 f9aa 	bl	8004cb8 <vPortExitCritical>
 8003964:	f000 fba4 	bl	80040b0 <vTaskSuspendAll>
 8003968:	f001 f984 	bl	8004c74 <vPortEnterCritical>
 800396c:	f894 3044 	ldrb.w	r3, [r4, #68]	; 0x44
 8003970:	2bff      	cmp	r3, #255	; 0xff
 8003972:	bf08      	it	eq
 8003974:	f884 9044 	strbeq.w	r9, [r4, #68]	; 0x44
 8003978:	f894 3045 	ldrb.w	r3, [r4, #69]	; 0x45
 800397c:	2bff      	cmp	r3, #255	; 0xff
 800397e:	bf08      	it	eq
 8003980:	f884 9045 	strbeq.w	r9, [r4, #69]	; 0x45
 8003984:	f001 f998 	bl	8004cb8 <vPortExitCritical>
 8003988:	a901      	add	r1, sp, #4
 800398a:	a802      	add	r0, sp, #8
 800398c:	f000 fd88 	bl	80044a0 <xTaskCheckForTimeOut>
 8003990:	2800      	cmp	r0, #0
 8003992:	d146      	bne.n	8003a22 <xQueueGenericSend+0x152>
 8003994:	f001 f96e 	bl	8004c74 <vPortEnterCritical>
 8003998:	6ba2      	ldr	r2, [r4, #56]	; 0x38
 800399a:	6be3      	ldr	r3, [r4, #60]	; 0x3c
 800399c:	429a      	cmp	r2, r3
 800399e:	d12f      	bne.n	8003a00 <xQueueGenericSend+0x130>
 80039a0:	f001 f98a 	bl	8004cb8 <vPortExitCritical>
 80039a4:	9901      	ldr	r1, [sp, #4]
 80039a6:	f104 0010 	add.w	r0, r4, #16
 80039aa:	f000 fcf3 	bl	8004394 <vTaskPlaceOnEventList>
 80039ae:	4620      	mov	r0, r4
 80039b0:	f7ff fec8 	bl	8003744 <prvUnlockQueue>
 80039b4:	f000 fc1a 	bl	80041ec <xTaskResumeAll>
 80039b8:	b350      	cbz	r0, 8003a10 <xQueueGenericSend+0x140>
 80039ba:	2601      	movs	r6, #1
 80039bc:	f001 f95a 	bl	8004c74 <vPortEnterCritical>
 80039c0:	6ba2      	ldr	r2, [r4, #56]	; 0x38
 80039c2:	6be3      	ldr	r3, [r4, #60]	; 0x3c
 80039c4:	429a      	cmp	r2, r3
 80039c6:	d301      	bcc.n	80039cc <xQueueGenericSend+0xfc>
 80039c8:	2f02      	cmp	r7, #2
 80039ca:	d1bf      	bne.n	800394c <xQueueGenericSend+0x7c>
 80039cc:	463a      	mov	r2, r7
 80039ce:	4641      	mov	r1, r8
 80039d0:	4620      	mov	r0, r4
 80039d2:	f7ff fe70 	bl	80036b6 <prvCopyDataToQueue>
 80039d6:	6a63      	ldr	r3, [r4, #36]	; 0x24
 80039d8:	b11b      	cbz	r3, 80039e2 <xQueueGenericSend+0x112>
 80039da:	f104 0024 	add.w	r0, r4, #36	; 0x24
 80039de:	f000 fd13 	bl	8004408 <xTaskRemoveFromEventList>
 80039e2:	b138      	cbz	r0, 80039f4 <xQueueGenericSend+0x124>
 80039e4:	f04f 5280 	mov.w	r2, #268435456	; 0x10000000
 80039e8:	4b11      	ldr	r3, [pc, #68]	; (8003a30 <xQueueGenericSend+0x160>)
 80039ea:	601a      	str	r2, [r3, #0]
 80039ec:	f3bf 8f4f 	dsb	sy
 80039f0:	f3bf 8f6f 	isb	sy
 80039f4:	f001 f960 	bl	8004cb8 <vPortExitCritical>
 80039f8:	2001      	movs	r0, #1
 80039fa:	b004      	add	sp, #16
 80039fc:	e8bd 87f0 	ldmia.w	sp!, {r4, r5, r6, r7, r8, r9, sl, pc}
 8003a00:	f001 f95a 	bl	8004cb8 <vPortExitCritical>
 8003a04:	4620      	mov	r0, r4
 8003a06:	f7ff fe9d 	bl	8003744 <prvUnlockQueue>
 8003a0a:	f000 fbef 	bl	80041ec <xTaskResumeAll>
 8003a0e:	e7d4      	b.n	80039ba <xQueueGenericSend+0xea>
 8003a10:	f04f 5380 	mov.w	r3, #268435456	; 0x10000000
 8003a14:	f8ca 3000 	str.w	r3, [sl]
 8003a18:	f3bf 8f4f 	dsb	sy
 8003a1c:	f3bf 8f6f 	isb	sy
 8003a20:	e7cb      	b.n	80039ba <xQueueGenericSend+0xea>
 8003a22:	4620      	mov	r0, r4
 8003a24:	f7ff fe8e 	bl	8003744 <prvUnlockQueue>
 8003a28:	f000 fbe0 	bl	80041ec <xTaskResumeAll>
 8003a2c:	e792      	b.n	8003954 <xQueueGenericSend+0x84>
 8003a2e:	bf00      	nop
 8003a30:	e000ed04 	.word	0xe000ed04

08003a34 <xQueueGenericSendFromISR>:
 8003a34:	e92d 43f8 	stmdb	sp!, {r3, r4, r5, r6, r7, r8, r9, lr}
 8003a38:	4689      	mov	r9, r1
 8003a3a:	4690      	mov	r8, r2
 8003a3c:	461f      	mov	r7, r3
 8003a3e:	4604      	mov	r4, r0
 8003a40:	b940      	cbnz	r0, 8003a54 <xQueueGenericSendFromISR+0x20>
 8003a42:	f04f 0350 	mov.w	r3, #80	; 0x50
 8003a46:	f383 8811 	msr	BASEPRI, r3
 8003a4a:	f3bf 8f6f 	isb	sy
 8003a4e:	f3bf 8f4f 	dsb	sy
 8003a52:	e7fe      	b.n	8003a52 <xQueueGenericSendFromISR+0x1e>
 8003a54:	b951      	cbnz	r1, 8003a6c <xQueueGenericSendFromISR+0x38>
 8003a56:	6c03      	ldr	r3, [r0, #64]	; 0x40
 8003a58:	b143      	cbz	r3, 8003a6c <xQueueGenericSendFromISR+0x38>
 8003a5a:	f04f 0350 	mov.w	r3, #80	; 0x50
 8003a5e:	f383 8811 	msr	BASEPRI, r3
 8003a62:	f3bf 8f6f 	isb	sy
 8003a66:	f3bf 8f4f 	dsb	sy
 8003a6a:	e7fe      	b.n	8003a6a <xQueueGenericSendFromISR+0x36>
 8003a6c:	2f02      	cmp	r7, #2
 8003a6e:	d10b      	bne.n	8003a88 <xQueueGenericSendFromISR+0x54>
 8003a70:	6be3      	ldr	r3, [r4, #60]	; 0x3c
 8003a72:	2b01      	cmp	r3, #1
 8003a74:	d008      	beq.n	8003a88 <xQueueGenericSendFromISR+0x54>
 8003a76:	f04f 0350 	mov.w	r3, #80	; 0x50
 8003a7a:	f383 8811 	msr	BASEPRI, r3
 8003a7e:	f3bf 8f6f 	isb	sy
 8003a82:	f3bf 8f4f 	dsb	sy
 8003a86:	e7fe      	b.n	8003a86 <xQueueGenericSendFromISR+0x52>
 8003a88:	f001 f9d6 	bl	8004e38 <vPortValidateInterruptPriority>
 8003a8c:	f3ef 8611 	mrs	r6, BASEPRI
 8003a90:	f04f 0350 	mov.w	r3, #80	; 0x50
 8003a94:	f383 8811 	msr	BASEPRI, r3
 8003a98:	f3bf 8f6f 	isb	sy
 8003a9c:	f3bf 8f4f 	dsb	sy
 8003aa0:	6ba2      	ldr	r2, [r4, #56]	; 0x38
 8003aa2:	6be3      	ldr	r3, [r4, #60]	; 0x3c
 8003aa4:	429a      	cmp	r2, r3
 8003aa6:	d301      	bcc.n	8003aac <xQueueGenericSendFromISR+0x78>
 8003aa8:	2f02      	cmp	r7, #2
 8003aaa:	d122      	bne.n	8003af2 <xQueueGenericSendFromISR+0xbe>
 8003aac:	f894 5045 	ldrb.w	r5, [r4, #69]	; 0x45
 8003ab0:	463a      	mov	r2, r7
 8003ab2:	b26d      	sxtb	r5, r5
 8003ab4:	4649      	mov	r1, r9
 8003ab6:	4620      	mov	r0, r4
 8003ab8:	f7ff fdfd 	bl	80036b6 <prvCopyDataToQueue>
 8003abc:	1c6b      	adds	r3, r5, #1
 8003abe:	d113      	bne.n	8003ae8 <xQueueGenericSendFromISR+0xb4>
 8003ac0:	6a63      	ldr	r3, [r4, #36]	; 0x24
 8003ac2:	b90b      	cbnz	r3, 8003ac8 <xQueueGenericSendFromISR+0x94>
 8003ac4:	2001      	movs	r0, #1
 8003ac6:	e00b      	b.n	8003ae0 <xQueueGenericSendFromISR+0xac>
 8003ac8:	f104 0024 	add.w	r0, r4, #36	; 0x24
 8003acc:	f000 fc9c 	bl	8004408 <xTaskRemoveFromEventList>
 8003ad0:	2800      	cmp	r0, #0
 8003ad2:	d0f7      	beq.n	8003ac4 <xQueueGenericSendFromISR+0x90>
 8003ad4:	f1b8 0f00 	cmp.w	r8, #0
 8003ad8:	d0f4      	beq.n	8003ac4 <xQueueGenericSendFromISR+0x90>
 8003ada:	2001      	movs	r0, #1
 8003adc:	f8c8 0000 	str.w	r0, [r8]
 8003ae0:	f386 8811 	msr	BASEPRI, r6
 8003ae4:	e8bd 83f8 	ldmia.w	sp!, {r3, r4, r5, r6, r7, r8, r9, pc}
 8003ae8:	3501      	adds	r5, #1
 8003aea:	b26d      	sxtb	r5, r5
 8003aec:	f884 5045 	strb.w	r5, [r4, #69]	; 0x45
 8003af0:	e7e8      	b.n	8003ac4 <xQueueGenericSendFromISR+0x90>
 8003af2:	2000      	movs	r0, #0
 8003af4:	e7f4      	b.n	8003ae0 <xQueueGenericSendFromISR+0xac>
	...

08003af8 <xQueueReceive>:
 8003af8:	e92d 43f0 	stmdb	sp!, {r4, r5, r6, r7, r8, r9, lr}
 8003afc:	b085      	sub	sp, #20
 8003afe:	460f      	mov	r7, r1
 8003b00:	9201      	str	r2, [sp, #4]
 8003b02:	4604      	mov	r4, r0
 8003b04:	b940      	cbnz	r0, 8003b18 <xQueueReceive+0x20>
 8003b06:	f04f 0350 	mov.w	r3, #80	; 0x50
 8003b0a:	f383 8811 	msr	BASEPRI, r3
 8003b0e:	f3bf 8f6f 	isb	sy
 8003b12:	f3bf 8f4f 	dsb	sy
 8003b16:	e7fe      	b.n	8003b16 <xQueueReceive+0x1e>
 8003b18:	b951      	cbnz	r1, 8003b30 <xQueueReceive+0x38>
 8003b1a:	6c03      	ldr	r3, [r0, #64]	; 0x40
 8003b1c:	b143      	cbz	r3, 8003b30 <xQueueReceive+0x38>
 8003b1e:	f04f 0350 	mov.w	r3, #80	; 0x50
 8003b22:	f383 8811 	msr	BASEPRI, r3
 8003b26:	f3bf 8f6f 	isb	sy
 8003b2a:	f3bf 8f4f 	dsb	sy
 8003b2e:	e7fe      	b.n	8003b2e <xQueueReceive+0x36>
 8003b30:	f000 fcf8 	bl	8004524 <xTaskGetSchedulerState>
 8003b34:	b950      	cbnz	r0, 8003b4c <xQueueReceive+0x54>
 8003b36:	9e01      	ldr	r6, [sp, #4]
 8003b38:	b14e      	cbz	r6, 8003b4e <xQueueReceive+0x56>
 8003b3a:	f04f 0350 	mov.w	r3, #80	; 0x50
 8003b3e:	f383 8811 	msr	BASEPRI, r3
 8003b42:	f3bf 8f6f 	isb	sy
 8003b46:	f3bf 8f4f 	dsb	sy
 8003b4a:	e7fe      	b.n	8003b4a <xQueueReceive+0x52>
 8003b4c:	2600      	movs	r6, #0
 8003b4e:	f04f 0800 	mov.w	r8, #0
 8003b52:	f8df 90e0 	ldr.w	r9, [pc, #224]	; 8003c34 <xQueueReceive+0x13c>
 8003b56:	e03b      	b.n	8003bd0 <xQueueReceive+0xd8>
 8003b58:	9d01      	ldr	r5, [sp, #4]
 8003b5a:	b91d      	cbnz	r5, 8003b64 <xQueueReceive+0x6c>
 8003b5c:	f001 f8ac 	bl	8004cb8 <vPortExitCritical>
 8003b60:	2000      	movs	r0, #0
 8003b62:	e052      	b.n	8003c0a <xQueueReceive+0x112>
 8003b64:	b916      	cbnz	r6, 8003b6c <xQueueReceive+0x74>
 8003b66:	a802      	add	r0, sp, #8
 8003b68:	f000 fc8e 	bl	8004488 <vTaskInternalSetTimeOutState>
 8003b6c:	f001 f8a4 	bl	8004cb8 <vPortExitCritical>
 8003b70:	f000 fa9e 	bl	80040b0 <vTaskSuspendAll>
 8003b74:	f001 f87e 	bl	8004c74 <vPortEnterCritical>
 8003b78:	f894 3044 	ldrb.w	r3, [r4, #68]	; 0x44
 8003b7c:	2bff      	cmp	r3, #255	; 0xff
 8003b7e:	bf08      	it	eq
 8003b80:	f884 8044 	strbeq.w	r8, [r4, #68]	; 0x44
 8003b84:	f894 3045 	ldrb.w	r3, [r4, #69]	; 0x45
 8003b88:	2bff      	cmp	r3, #255	; 0xff
 8003b8a:	bf08      	it	eq
 8003b8c:	f884 8045 	strbeq.w	r8, [r4, #69]	; 0x45
 8003b90:	f001 f892 	bl	8004cb8 <vPortExitCritical>
 8003b94:	a901      	add	r1, sp, #4
 8003b96:	a802      	add	r0, sp, #8
 8003b98:	f000 fc82 	bl	80044a0 <xTaskCheckForTimeOut>
 8003b9c:	2800      	cmp	r0, #0
 8003b9e:	d13d      	bne.n	8003c1c <xQueueReceive+0x124>
 8003ba0:	4620      	mov	r0, r4
 8003ba2:	f7ff fd7d 	bl	80036a0 <prvIsQueueEmpty>
 8003ba6:	b398      	cbz	r0, 8003c10 <xQueueReceive+0x118>
 8003ba8:	9901      	ldr	r1, [sp, #4]
 8003baa:	f104 0024 	add.w	r0, r4, #36	; 0x24
 8003bae:	f000 fbf1 	bl	8004394 <vTaskPlaceOnEventList>
 8003bb2:	4620      	mov	r0, r4
 8003bb4:	f7ff fdc6 	bl	8003744 <prvUnlockQueue>
 8003bb8:	f000 fb18 	bl	80041ec <xTaskResumeAll>
 8003bbc:	b938      	cbnz	r0, 8003bce <xQueueReceive+0xd6>
 8003bbe:	f04f 5380 	mov.w	r3, #268435456	; 0x10000000
 8003bc2:	f8c9 3000 	str.w	r3, [r9]
 8003bc6:	f3bf 8f4f 	dsb	sy
 8003bca:	f3bf 8f6f 	isb	sy
 8003bce:	2601      	movs	r6, #1
 8003bd0:	f001 f850 	bl	8004c74 <vPortEnterCritical>
 8003bd4:	6ba5      	ldr	r5, [r4, #56]	; 0x38
 8003bd6:	2d00      	cmp	r5, #0
 8003bd8:	d0be      	beq.n	8003b58 <xQueueReceive+0x60>
 8003bda:	4639      	mov	r1, r7
 8003bdc:	4620      	mov	r0, r4
 8003bde:	3d01      	subs	r5, #1
 8003be0:	f7ff fd9c 	bl	800371c <prvCopyDataFromQueue>
 8003be4:	63a5      	str	r5, [r4, #56]	; 0x38
 8003be6:	6923      	ldr	r3, [r4, #16]
 8003be8:	b163      	cbz	r3, 8003c04 <xQueueReceive+0x10c>
 8003bea:	f104 0010 	add.w	r0, r4, #16
 8003bee:	f000 fc0b 	bl	8004408 <xTaskRemoveFromEventList>
 8003bf2:	b138      	cbz	r0, 8003c04 <xQueueReceive+0x10c>
 8003bf4:	f04f 5280 	mov.w	r2, #268435456	; 0x10000000
 8003bf8:	4b0e      	ldr	r3, [pc, #56]	; (8003c34 <xQueueReceive+0x13c>)
 8003bfa:	601a      	str	r2, [r3, #0]
 8003bfc:	f3bf 8f4f 	dsb	sy
 8003c00:	f3bf 8f6f 	isb	sy
 8003c04:	f001 f858 	bl	8004cb8 <vPortExitCritical>
 8003c08:	2001      	movs	r0, #1
 8003c0a:	b005      	add	sp, #20
 8003c0c:	e8bd 83f0 	ldmia.w	sp!, {r4, r5, r6, r7, r8, r9, pc}
 8003c10:	4620      	mov	r0, r4
 8003c12:	f7ff fd97 	bl	8003744 <prvUnlockQueue>
 8003c16:	f000 fae9 	bl	80041ec <xTaskResumeAll>
 8003c1a:	e7d8      	b.n	8003bce <xQueueReceive+0xd6>
 8003c1c:	4620      	mov	r0, r4
 8003c1e:	f7ff fd91 	bl	8003744 <prvUnlockQueue>
 8003c22:	f000 fae3 	bl	80041ec <xTaskResumeAll>
 8003c26:	4620      	mov	r0, r4
 8003c28:	f7ff fd3a 	bl	80036a0 <prvIsQueueEmpty>
 8003c2c:	2800      	cmp	r0, #0
 8003c2e:	d0ce      	beq.n	8003bce <xQueueReceive+0xd6>
 8003c30:	e796      	b.n	8003b60 <xQueueReceive+0x68>
 8003c32:	bf00      	nop
 8003c34:	e000ed04 	.word	0xe000ed04

08003c38 <vQueueAddToRegistry>:
 8003c38:	2300      	movs	r3, #0
 8003c3a:	b530      	push	{r4, r5, lr}
 8003c3c:	4a06      	ldr	r2, [pc, #24]	; (8003c58 <vQueueAddToRegistry+0x20>)
 8003c3e:	f852 5033 	ldr.w	r5, [r2, r3, lsl #3]
 8003c42:	eb02 04c3 	add.w	r4, r2, r3, lsl #3
 8003c46:	b91d      	cbnz	r5, 8003c50 <vQueueAddToRegistry+0x18>
 8003c48:	f842 1033 	str.w	r1, [r2, r3, lsl #3]
 8003c4c:	6060      	str	r0, [r4, #4]
 8003c4e:	bd30      	pop	{r4, r5, pc}
 8003c50:	3301      	adds	r3, #1
 8003c52:	2b08      	cmp	r3, #8
 8003c54:	d1f3      	bne.n	8003c3e <vQueueAddToRegistry+0x6>
 8003c56:	e7fa      	b.n	8003c4e <vQueueAddToRegistry+0x16>
 8003c58:	20001da8 	.word	0x20001da8

08003c5c <vQueueWaitForMessageRestricted>:
 8003c5c:	b570      	push	{r4, r5, r6, lr}
 8003c5e:	4604      	mov	r4, r0
 8003c60:	460d      	mov	r5, r1
 8003c62:	4616      	mov	r6, r2
 8003c64:	f001 f806 	bl	8004c74 <vPortEnterCritical>
 8003c68:	f894 3044 	ldrb.w	r3, [r4, #68]	; 0x44
 8003c6c:	2bff      	cmp	r3, #255	; 0xff
 8003c6e:	bf04      	itt	eq
 8003c70:	2300      	moveq	r3, #0
 8003c72:	f884 3044 	strbeq.w	r3, [r4, #68]	; 0x44
 8003c76:	f894 3045 	ldrb.w	r3, [r4, #69]	; 0x45
 8003c7a:	2bff      	cmp	r3, #255	; 0xff
 8003c7c:	bf04      	itt	eq
 8003c7e:	2300      	moveq	r3, #0
 8003c80:	f884 3045 	strbeq.w	r3, [r4, #69]	; 0x45
 8003c84:	f001 f818 	bl	8004cb8 <vPortExitCritical>
 8003c88:	6ba3      	ldr	r3, [r4, #56]	; 0x38
 8003c8a:	b92b      	cbnz	r3, 8003c98 <vQueueWaitForMessageRestricted+0x3c>
 8003c8c:	4632      	mov	r2, r6
 8003c8e:	4629      	mov	r1, r5
 8003c90:	f104 0024 	add.w	r0, r4, #36	; 0x24
 8003c94:	f000 fb98 	bl	80043c8 <vTaskPlaceOnEventListRestricted>
 8003c98:	4620      	mov	r0, r4
 8003c9a:	e8bd 4070 	ldmia.w	sp!, {r4, r5, r6, lr}
 8003c9e:	f7ff bd51 	b.w	8003744 <prvUnlockQueue>
	...

08003ca4 <prvAddNewTaskToReadyList>:
 8003ca4:	e92d 41f0 	stmdb	sp!, {r4, r5, r6, r7, r8, lr}
 8003ca8:	4604      	mov	r4, r0
 8003caa:	f000 ffe3 	bl	8004c74 <vPortEnterCritical>
 8003cae:	4b2f      	ldr	r3, [pc, #188]	; (8003d6c <prvAddNewTaskToReadyList+0xc8>)
 8003cb0:	4d2f      	ldr	r5, [pc, #188]	; (8003d70 <prvAddNewTaskToReadyList+0xcc>)
 8003cb2:	681a      	ldr	r2, [r3, #0]
 8003cb4:	4f2f      	ldr	r7, [pc, #188]	; (8003d74 <prvAddNewTaskToReadyList+0xd0>)
 8003cb6:	3201      	adds	r2, #1
 8003cb8:	601a      	str	r2, [r3, #0]
 8003cba:	682e      	ldr	r6, [r5, #0]
 8003cbc:	2e00      	cmp	r6, #0
 8003cbe:	d149      	bne.n	8003d54 <prvAddNewTaskToReadyList+0xb0>
 8003cc0:	602c      	str	r4, [r5, #0]
 8003cc2:	681b      	ldr	r3, [r3, #0]
 8003cc4:	2b01      	cmp	r3, #1
 8003cc6:	d11f      	bne.n	8003d08 <prvAddNewTaskToReadyList+0x64>
 8003cc8:	f04f 0814 	mov.w	r8, #20
 8003ccc:	fb08 7006 	mla	r0, r8, r6, r7
 8003cd0:	3601      	adds	r6, #1
 8003cd2:	f7ff fca3 	bl	800361c <vListInitialise>
 8003cd6:	2e38      	cmp	r6, #56	; 0x38
 8003cd8:	d1f8      	bne.n	8003ccc <prvAddNewTaskToReadyList+0x28>
 8003cda:	f8df 80c4 	ldr.w	r8, [pc, #196]	; 8003da0 <prvAddNewTaskToReadyList+0xfc>
 8003cde:	4e26      	ldr	r6, [pc, #152]	; (8003d78 <prvAddNewTaskToReadyList+0xd4>)
 8003ce0:	4640      	mov	r0, r8
 8003ce2:	f7ff fc9b 	bl	800361c <vListInitialise>
 8003ce6:	4630      	mov	r0, r6
 8003ce8:	f7ff fc98 	bl	800361c <vListInitialise>
 8003cec:	4823      	ldr	r0, [pc, #140]	; (8003d7c <prvAddNewTaskToReadyList+0xd8>)
 8003cee:	f7ff fc95 	bl	800361c <vListInitialise>
 8003cf2:	4823      	ldr	r0, [pc, #140]	; (8003d80 <prvAddNewTaskToReadyList+0xdc>)
 8003cf4:	f7ff fc92 	bl	800361c <vListInitialise>
 8003cf8:	4822      	ldr	r0, [pc, #136]	; (8003d84 <prvAddNewTaskToReadyList+0xe0>)
 8003cfa:	f7ff fc8f 	bl	800361c <vListInitialise>
 8003cfe:	4b22      	ldr	r3, [pc, #136]	; (8003d88 <prvAddNewTaskToReadyList+0xe4>)
 8003d00:	f8c3 8000 	str.w	r8, [r3]
 8003d04:	4b21      	ldr	r3, [pc, #132]	; (8003d8c <prvAddNewTaskToReadyList+0xe8>)
 8003d06:	601e      	str	r6, [r3, #0]
 8003d08:	2014      	movs	r0, #20
 8003d0a:	4a21      	ldr	r2, [pc, #132]	; (8003d90 <prvAddNewTaskToReadyList+0xec>)
 8003d0c:	6813      	ldr	r3, [r2, #0]
 8003d0e:	3301      	adds	r3, #1
 8003d10:	6013      	str	r3, [r2, #0]
 8003d12:	4a20      	ldr	r2, [pc, #128]	; (8003d94 <prvAddNewTaskToReadyList+0xf0>)
 8003d14:	6463      	str	r3, [r4, #68]	; 0x44
 8003d16:	6811      	ldr	r1, [r2, #0]
 8003d18:	6ae3      	ldr	r3, [r4, #44]	; 0x2c
 8003d1a:	428b      	cmp	r3, r1
 8003d1c:	fb00 7003 	mla	r0, r0, r3, r7
 8003d20:	f104 0104 	add.w	r1, r4, #4
 8003d24:	bf88      	it	hi
 8003d26:	6013      	strhi	r3, [r2, #0]
 8003d28:	f7ff fc86 	bl	8003638 <vListInsertEnd>
 8003d2c:	f000 ffc4 	bl	8004cb8 <vPortExitCritical>
 8003d30:	4b19      	ldr	r3, [pc, #100]	; (8003d98 <prvAddNewTaskToReadyList+0xf4>)
 8003d32:	681b      	ldr	r3, [r3, #0]
 8003d34:	b163      	cbz	r3, 8003d50 <prvAddNewTaskToReadyList+0xac>
 8003d36:	682b      	ldr	r3, [r5, #0]
 8003d38:	6ada      	ldr	r2, [r3, #44]	; 0x2c
 8003d3a:	6ae3      	ldr	r3, [r4, #44]	; 0x2c
 8003d3c:	429a      	cmp	r2, r3
 8003d3e:	d207      	bcs.n	8003d50 <prvAddNewTaskToReadyList+0xac>
 8003d40:	f04f 5280 	mov.w	r2, #268435456	; 0x10000000
 8003d44:	4b15      	ldr	r3, [pc, #84]	; (8003d9c <prvAddNewTaskToReadyList+0xf8>)
 8003d46:	601a      	str	r2, [r3, #0]
 8003d48:	f3bf 8f4f 	dsb	sy
 8003d4c:	f3bf 8f6f 	isb	sy
 8003d50:	e8bd 81f0 	ldmia.w	sp!, {r4, r5, r6, r7, r8, pc}
 8003d54:	4b10      	ldr	r3, [pc, #64]	; (8003d98 <prvAddNewTaskToReadyList+0xf4>)
 8003d56:	681b      	ldr	r3, [r3, #0]
 8003d58:	2b00      	cmp	r3, #0
 8003d5a:	d1d5      	bne.n	8003d08 <prvAddNewTaskToReadyList+0x64>
 8003d5c:	682b      	ldr	r3, [r5, #0]
 8003d5e:	6ada      	ldr	r2, [r3, #44]	; 0x2c
 8003d60:	6ae3      	ldr	r3, [r4, #44]	; 0x2c
 8003d62:	429a      	cmp	r2, r3
 8003d64:	bf98      	it	ls
 8003d66:	602c      	strls	r4, [r5, #0]
 8003d68:	e7ce      	b.n	8003d08 <prvAddNewTaskToReadyList+0x64>
 8003d6a:	bf00      	nop
 8003d6c:	20000d60 	.word	0x20000d60
 8003d70:	200008f4 	.word	0x200008f4
 8003d74:	20000900 	.word	0x20000900
 8003d78:	20000d8c 	.word	0x20000d8c
 8003d7c:	20000da8 	.word	0x20000da8
 8003d80:	20000dd4 	.word	0x20000dd4
 8003d84:	20000dc0 	.word	0x20000dc0
 8003d88:	200008f8 	.word	0x200008f8
 8003d8c:	200008fc 	.word	0x200008fc
 8003d90:	20000d70 	.word	0x20000d70
 8003d94:	20000d74 	.word	0x20000d74
 8003d98:	20000dbc 	.word	0x20000dbc
 8003d9c:	e000ed04 	.word	0xe000ed04
 8003da0:	20000d78 	.word	0x20000d78

08003da4 <prvDeleteTCB>:
 8003da4:	b510      	push	{r4, lr}
 8003da6:	f890 3059 	ldrb.w	r3, [r0, #89]	; 0x59
 8003daa:	4604      	mov	r4, r0
 8003dac:	b93b      	cbnz	r3, 8003dbe <prvDeleteTCB+0x1a>
 8003dae:	6b00      	ldr	r0, [r0, #48]	; 0x30
 8003db0:	f001 f920 	bl	8004ff4 <vPortFree>
 8003db4:	4620      	mov	r0, r4
 8003db6:	e8bd 4010 	ldmia.w	sp!, {r4, lr}
 8003dba:	f001 b91b 	b.w	8004ff4 <vPortFree>
 8003dbe:	2b01      	cmp	r3, #1
 8003dc0:	d0f9      	beq.n	8003db6 <prvDeleteTCB+0x12>
 8003dc2:	2b02      	cmp	r3, #2
 8003dc4:	d008      	beq.n	8003dd8 <prvDeleteTCB+0x34>
 8003dc6:	f04f 0350 	mov.w	r3, #80	; 0x50
 8003dca:	f383 8811 	msr	BASEPRI, r3
 8003dce:	f3bf 8f6f 	isb	sy
 8003dd2:	f3bf 8f4f 	dsb	sy
 8003dd6:	e7fe      	b.n	8003dd6 <prvDeleteTCB+0x32>
 8003dd8:	bd10      	pop	{r4, pc}
	...

08003ddc <prvIdleTask>:
 8003ddc:	b580      	push	{r7, lr}
 8003dde:	f8df 805c 	ldr.w	r8, [pc, #92]	; 8003e3c <prvIdleTask+0x60>
 8003de2:	4f12      	ldr	r7, [pc, #72]	; (8003e2c <prvIdleTask+0x50>)
 8003de4:	4c12      	ldr	r4, [pc, #72]	; (8003e30 <prvIdleTask+0x54>)
 8003de6:	4d13      	ldr	r5, [pc, #76]	; (8003e34 <prvIdleTask+0x58>)
 8003de8:	6823      	ldr	r3, [r4, #0]
 8003dea:	b963      	cbnz	r3, 8003e06 <prvIdleTask+0x2a>
 8003dec:	4b12      	ldr	r3, [pc, #72]	; (8003e38 <prvIdleTask+0x5c>)
 8003dee:	681b      	ldr	r3, [r3, #0]
 8003df0:	2b01      	cmp	r3, #1
 8003df2:	d9f8      	bls.n	8003de6 <prvIdleTask+0xa>
 8003df4:	f04f 5380 	mov.w	r3, #268435456	; 0x10000000
 8003df8:	f8c8 3000 	str.w	r3, [r8]
 8003dfc:	f3bf 8f4f 	dsb	sy
 8003e00:	f3bf 8f6f 	isb	sy
 8003e04:	e7ee      	b.n	8003de4 <prvIdleTask+0x8>
 8003e06:	f000 ff35 	bl	8004c74 <vPortEnterCritical>
 8003e0a:	68fb      	ldr	r3, [r7, #12]
 8003e0c:	68de      	ldr	r6, [r3, #12]
 8003e0e:	1d30      	adds	r0, r6, #4
 8003e10:	f7ff fc35 	bl	800367e <uxListRemove>
 8003e14:	682b      	ldr	r3, [r5, #0]
 8003e16:	3b01      	subs	r3, #1
 8003e18:	602b      	str	r3, [r5, #0]
 8003e1a:	6823      	ldr	r3, [r4, #0]
 8003e1c:	3b01      	subs	r3, #1
 8003e1e:	6023      	str	r3, [r4, #0]
 8003e20:	f000 ff4a 	bl	8004cb8 <vPortExitCritical>
 8003e24:	4630      	mov	r0, r6
 8003e26:	f7ff ffbd 	bl	8003da4 <prvDeleteTCB>
 8003e2a:	e7dd      	b.n	8003de8 <prvIdleTask+0xc>
 8003e2c:	20000dd4 	.word	0x20000dd4
 8003e30:	20000d64 	.word	0x20000d64
 8003e34:	20000d60 	.word	0x20000d60
 8003e38:	20000900 	.word	0x20000900
 8003e3c:	e000ed04 	.word	0xe000ed04

08003e40 <prvResetNextTaskUnblockTime>:
 8003e40:	4a06      	ldr	r2, [pc, #24]	; (8003e5c <prvResetNextTaskUnblockTime+0x1c>)
 8003e42:	6813      	ldr	r3, [r2, #0]
 8003e44:	6819      	ldr	r1, [r3, #0]
 8003e46:	4b06      	ldr	r3, [pc, #24]	; (8003e60 <prvResetNextTaskUnblockTime+0x20>)
 8003e48:	b919      	cbnz	r1, 8003e52 <prvResetNextTaskUnblockTime+0x12>
 8003e4a:	f04f 32ff 	mov.w	r2, #4294967295
 8003e4e:	601a      	str	r2, [r3, #0]
 8003e50:	4770      	bx	lr
 8003e52:	6812      	ldr	r2, [r2, #0]
 8003e54:	68d2      	ldr	r2, [r2, #12]
 8003e56:	68d2      	ldr	r2, [r2, #12]
 8003e58:	6852      	ldr	r2, [r2, #4]
 8003e5a:	e7f8      	b.n	8003e4e <prvResetNextTaskUnblockTime+0xe>
 8003e5c:	200008f8 	.word	0x200008f8
 8003e60:	20000da0 	.word	0x20000da0

08003e64 <prvInitialiseNewTask.isra.2>:
 8003e64:	e92d 47f0 	stmdb	sp!, {r4, r5, r6, r7, r8, r9, sl, lr}
 8003e68:	460d      	mov	r5, r1
 8003e6a:	e9dd 7409 	ldrd	r7, r4, [sp, #36]	; 0x24
 8003e6e:	0096      	lsls	r6, r2, #2
 8003e70:	4632      	mov	r2, r6
 8003e72:	4680      	mov	r8, r0
 8003e74:	21a5      	movs	r1, #165	; 0xa5
 8003e76:	6b20      	ldr	r0, [r4, #48]	; 0x30
 8003e78:	4699      	mov	r9, r3
 8003e7a:	f001 fb1c 	bl	80054b6 <memset>
 8003e7e:	6b23      	ldr	r3, [r4, #48]	; 0x30
 8003e80:	3e04      	subs	r6, #4
 8003e82:	441e      	add	r6, r3
 8003e84:	f026 0607 	bic.w	r6, r6, #7
 8003e88:	1e6b      	subs	r3, r5, #1
 8003e8a:	f104 0234 	add.w	r2, r4, #52	; 0x34
 8003e8e:	350f      	adds	r5, #15
 8003e90:	f813 1f01 	ldrb.w	r1, [r3, #1]!
 8003e94:	f802 1b01 	strb.w	r1, [r2], #1
 8003e98:	7819      	ldrb	r1, [r3, #0]
 8003e9a:	b109      	cbz	r1, 8003ea0 <prvInitialiseNewTask.isra.2+0x3c>
 8003e9c:	42ab      	cmp	r3, r5
 8003e9e:	d1f7      	bne.n	8003e90 <prvInitialiseNewTask.isra.2+0x2c>
 8003ea0:	9d08      	ldr	r5, [sp, #32]
 8003ea2:	f04f 0a00 	mov.w	sl, #0
 8003ea6:	2d37      	cmp	r5, #55	; 0x37
 8003ea8:	bf28      	it	cs
 8003eaa:	2537      	movcs	r5, #55	; 0x37
 8003eac:	1d20      	adds	r0, r4, #4
 8003eae:	62e5      	str	r5, [r4, #44]	; 0x2c
 8003eb0:	e9c4 5a13 	strd	r5, sl, [r4, #76]	; 0x4c
 8003eb4:	f884 a043 	strb.w	sl, [r4, #67]	; 0x43
 8003eb8:	f7ff fbbb 	bl	8003632 <vListInitialiseItem>
 8003ebc:	f1c5 0538 	rsb	r5, r5, #56	; 0x38
 8003ec0:	f104 0018 	add.w	r0, r4, #24
 8003ec4:	f7ff fbb5 	bl	8003632 <vListInitialiseItem>
 8003ec8:	f8c4 a054 	str.w	sl, [r4, #84]	; 0x54
 8003ecc:	6124      	str	r4, [r4, #16]
 8003ece:	61a5      	str	r5, [r4, #24]
 8003ed0:	6264      	str	r4, [r4, #36]	; 0x24
 8003ed2:	f884 a058 	strb.w	sl, [r4, #88]	; 0x58
 8003ed6:	464a      	mov	r2, r9
 8003ed8:	4641      	mov	r1, r8
 8003eda:	4630      	mov	r0, r6
 8003edc:	f000 fea6 	bl	8004c2c <pxPortInitialiseStack>
 8003ee0:	6020      	str	r0, [r4, #0]
 8003ee2:	b107      	cbz	r7, 8003ee6 <prvInitialiseNewTask.isra.2+0x82>
 8003ee4:	603c      	str	r4, [r7, #0]
 8003ee6:	e8bd 87f0 	ldmia.w	sp!, {r4, r5, r6, r7, r8, r9, sl, pc}
	...

08003eec <prvAddCurrentTaskToDelayedList>:
 8003eec:	b5f8      	push	{r3, r4, r5, r6, r7, lr}
 8003eee:	4605      	mov	r5, r0
 8003ef0:	4b15      	ldr	r3, [pc, #84]	; (8003f48 <prvAddCurrentTaskToDelayedList+0x5c>)
 8003ef2:	4e16      	ldr	r6, [pc, #88]	; (8003f4c <prvAddCurrentTaskToDelayedList+0x60>)
 8003ef4:	681c      	ldr	r4, [r3, #0]
 8003ef6:	6830      	ldr	r0, [r6, #0]
 8003ef8:	460f      	mov	r7, r1
 8003efa:	3004      	adds	r0, #4
 8003efc:	f7ff fbbf 	bl	800367e <uxListRemove>
 8003f00:	1c6b      	adds	r3, r5, #1
 8003f02:	4633      	mov	r3, r6
 8003f04:	d107      	bne.n	8003f16 <prvAddCurrentTaskToDelayedList+0x2a>
 8003f06:	b137      	cbz	r7, 8003f16 <prvAddCurrentTaskToDelayedList+0x2a>
 8003f08:	6831      	ldr	r1, [r6, #0]
 8003f0a:	4811      	ldr	r0, [pc, #68]	; (8003f50 <prvAddCurrentTaskToDelayedList+0x64>)
 8003f0c:	3104      	adds	r1, #4
 8003f0e:	e8bd 40f8 	ldmia.w	sp!, {r3, r4, r5, r6, r7, lr}
 8003f12:	f7ff bb91 	b.w	8003638 <vListInsertEnd>
 8003f16:	681a      	ldr	r2, [r3, #0]
 8003f18:	1964      	adds	r4, r4, r5
 8003f1a:	6054      	str	r4, [r2, #4]
 8003f1c:	d307      	bcc.n	8003f2e <prvAddCurrentTaskToDelayedList+0x42>
 8003f1e:	4a0d      	ldr	r2, [pc, #52]	; (8003f54 <prvAddCurrentTaskToDelayedList+0x68>)
 8003f20:	6810      	ldr	r0, [r2, #0]
 8003f22:	6819      	ldr	r1, [r3, #0]
 8003f24:	e8bd 40f8 	ldmia.w	sp!, {r3, r4, r5, r6, r7, lr}
 8003f28:	3104      	adds	r1, #4
 8003f2a:	f7ff bb91 	b.w	8003650 <vListInsert>
 8003f2e:	4a0a      	ldr	r2, [pc, #40]	; (8003f58 <prvAddCurrentTaskToDelayedList+0x6c>)
 8003f30:	6810      	ldr	r0, [r2, #0]
 8003f32:	6819      	ldr	r1, [r3, #0]
 8003f34:	3104      	adds	r1, #4
 8003f36:	f7ff fb8b 	bl	8003650 <vListInsert>
 8003f3a:	4b08      	ldr	r3, [pc, #32]	; (8003f5c <prvAddCurrentTaskToDelayedList+0x70>)
 8003f3c:	681a      	ldr	r2, [r3, #0]
 8003f3e:	42a2      	cmp	r2, r4
 8003f40:	bf88      	it	hi
 8003f42:	601c      	strhi	r4, [r3, #0]
 8003f44:	bdf8      	pop	{r3, r4, r5, r6, r7, pc}
 8003f46:	bf00      	nop
 8003f48:	20000de8 	.word	0x20000de8
 8003f4c:	200008f4 	.word	0x200008f4
 8003f50:	20000dc0 	.word	0x20000dc0
 8003f54:	200008fc 	.word	0x200008fc
 8003f58:	200008f8 	.word	0x200008f8
 8003f5c:	20000da0 	.word	0x20000da0

08003f60 <xTaskCreateStatic>:
 8003f60:	b570      	push	{r4, r5, r6, lr}
 8003f62:	b086      	sub	sp, #24
 8003f64:	e9dd 540b 	ldrd	r5, r4, [sp, #44]	; 0x2c
 8003f68:	b945      	cbnz	r5, 8003f7c <xTaskCreateStatic+0x1c>
 8003f6a:	f04f 0350 	mov.w	r3, #80	; 0x50
 8003f6e:	f383 8811 	msr	BASEPRI, r3
 8003f72:	f3bf 8f6f 	isb	sy
 8003f76:	f3bf 8f4f 	dsb	sy
 8003f7a:	e7fe      	b.n	8003f7a <xTaskCreateStatic+0x1a>
 8003f7c:	b944      	cbnz	r4, 8003f90 <xTaskCreateStatic+0x30>
 8003f7e:	f04f 0350 	mov.w	r3, #80	; 0x50
 8003f82:	f383 8811 	msr	BASEPRI, r3
 8003f86:	f3bf 8f6f 	isb	sy
 8003f8a:	f3bf 8f4f 	dsb	sy
 8003f8e:	e7fe      	b.n	8003f8e <xTaskCreateStatic+0x2e>
 8003f90:	265c      	movs	r6, #92	; 0x5c
 8003f92:	9604      	str	r6, [sp, #16]
 8003f94:	9e04      	ldr	r6, [sp, #16]
 8003f96:	2e5c      	cmp	r6, #92	; 0x5c
 8003f98:	d008      	beq.n	8003fac <xTaskCreateStatic+0x4c>
 8003f9a:	f04f 0350 	mov.w	r3, #80	; 0x50
 8003f9e:	f383 8811 	msr	BASEPRI, r3
 8003fa2:	f3bf 8f6f 	isb	sy
 8003fa6:	f3bf 8f4f 	dsb	sy
 8003faa:	e7fe      	b.n	8003faa <xTaskCreateStatic+0x4a>
 8003fac:	6325      	str	r5, [r4, #48]	; 0x30
 8003fae:	2502      	movs	r5, #2
 8003fb0:	f884 5059 	strb.w	r5, [r4, #89]	; 0x59
 8003fb4:	ad05      	add	r5, sp, #20
 8003fb6:	9501      	str	r5, [sp, #4]
 8003fb8:	9d0a      	ldr	r5, [sp, #40]	; 0x28
 8003fba:	9402      	str	r4, [sp, #8]
 8003fbc:	9500      	str	r5, [sp, #0]
 8003fbe:	f7ff ff51 	bl	8003e64 <prvInitialiseNewTask.isra.2>
 8003fc2:	4620      	mov	r0, r4
 8003fc4:	f7ff fe6e 	bl	8003ca4 <prvAddNewTaskToReadyList>
 8003fc8:	9805      	ldr	r0, [sp, #20]
 8003fca:	b006      	add	sp, #24
 8003fcc:	bd70      	pop	{r4, r5, r6, pc}

08003fce <xTaskCreate>:
 8003fce:	e92d 43f0 	stmdb	sp!, {r4, r5, r6, r7, r8, r9, lr}
 8003fd2:	4607      	mov	r7, r0
 8003fd4:	b085      	sub	sp, #20
 8003fd6:	0090      	lsls	r0, r2, #2
 8003fd8:	4688      	mov	r8, r1
 8003fda:	4616      	mov	r6, r2
 8003fdc:	4699      	mov	r9, r3
 8003fde:	f000 ff7d 	bl	8004edc <pvPortMalloc>
 8003fe2:	4605      	mov	r5, r0
 8003fe4:	b1e8      	cbz	r0, 8004022 <xTaskCreate+0x54>
 8003fe6:	205c      	movs	r0, #92	; 0x5c
 8003fe8:	f000 ff78 	bl	8004edc <pvPortMalloc>
 8003fec:	4604      	mov	r4, r0
 8003fee:	b1a8      	cbz	r0, 800401c <xTaskCreate+0x4e>
 8003ff0:	2300      	movs	r3, #0
 8003ff2:	f880 3059 	strb.w	r3, [r0, #89]	; 0x59
 8003ff6:	9b0d      	ldr	r3, [sp, #52]	; 0x34
 8003ff8:	6305      	str	r5, [r0, #48]	; 0x30
 8003ffa:	9301      	str	r3, [sp, #4]
 8003ffc:	9b0c      	ldr	r3, [sp, #48]	; 0x30
 8003ffe:	9002      	str	r0, [sp, #8]
 8004000:	9300      	str	r3, [sp, #0]
 8004002:	4632      	mov	r2, r6
 8004004:	464b      	mov	r3, r9
 8004006:	4641      	mov	r1, r8
 8004008:	4638      	mov	r0, r7
 800400a:	f7ff ff2b 	bl	8003e64 <prvInitialiseNewTask.isra.2>
 800400e:	4620      	mov	r0, r4
 8004010:	f7ff fe48 	bl	8003ca4 <prvAddNewTaskToReadyList>
 8004014:	2001      	movs	r0, #1
 8004016:	b005      	add	sp, #20
 8004018:	e8bd 83f0 	ldmia.w	sp!, {r4, r5, r6, r7, r8, r9, pc}
 800401c:	4628      	mov	r0, r5
 800401e:	f000 ffe9 	bl	8004ff4 <vPortFree>
 8004022:	f04f 30ff 	mov.w	r0, #4294967295
 8004026:	e7f6      	b.n	8004016 <xTaskCreate+0x48>

08004028 <vTaskStartScheduler>:
 8004028:	b510      	push	{r4, lr}
 800402a:	2400      	movs	r4, #0
 800402c:	b088      	sub	sp, #32
 800402e:	aa07      	add	r2, sp, #28
 8004030:	a906      	add	r1, sp, #24
 8004032:	a805      	add	r0, sp, #20
 8004034:	e9cd 4405 	strd	r4, r4, [sp, #20]
 8004038:	f7ff fad8 	bl	80035ec <vApplicationGetIdleTaskMemory>
 800403c:	9b05      	ldr	r3, [sp, #20]
 800403e:	9a07      	ldr	r2, [sp, #28]
 8004040:	9302      	str	r3, [sp, #8]
 8004042:	9b06      	ldr	r3, [sp, #24]
 8004044:	4915      	ldr	r1, [pc, #84]	; (800409c <vTaskStartScheduler+0x74>)
 8004046:	e9cd 4300 	strd	r4, r3, [sp]
 800404a:	4815      	ldr	r0, [pc, #84]	; (80040a0 <vTaskStartScheduler+0x78>)
 800404c:	4623      	mov	r3, r4
 800404e:	f7ff ff87 	bl	8003f60 <xTaskCreateStatic>
 8004052:	b1a8      	cbz	r0, 8004080 <vTaskStartScheduler+0x58>
 8004054:	f000 fc36 	bl	80048c4 <xTimerCreateTimerTask>
 8004058:	2801      	cmp	r0, #1
 800405a:	d113      	bne.n	8004084 <vTaskStartScheduler+0x5c>
 800405c:	f04f 0350 	mov.w	r3, #80	; 0x50
 8004060:	f383 8811 	msr	BASEPRI, r3
 8004064:	f3bf 8f6f 	isb	sy
 8004068:	f3bf 8f4f 	dsb	sy
 800406c:	f04f 32ff 	mov.w	r2, #4294967295
 8004070:	4b0c      	ldr	r3, [pc, #48]	; (80040a4 <vTaskStartScheduler+0x7c>)
 8004072:	601a      	str	r2, [r3, #0]
 8004074:	4b0c      	ldr	r3, [pc, #48]	; (80040a8 <vTaskStartScheduler+0x80>)
 8004076:	6018      	str	r0, [r3, #0]
 8004078:	4b0c      	ldr	r3, [pc, #48]	; (80040ac <vTaskStartScheduler+0x84>)
 800407a:	601c      	str	r4, [r3, #0]
 800407c:	f000 fe82 	bl	8004d84 <xPortStartScheduler>
 8004080:	b008      	add	sp, #32
 8004082:	bd10      	pop	{r4, pc}
 8004084:	3001      	adds	r0, #1
 8004086:	d1fb      	bne.n	8004080 <vTaskStartScheduler+0x58>
 8004088:	f04f 0350 	mov.w	r3, #80	; 0x50
 800408c:	f383 8811 	msr	BASEPRI, r3
 8004090:	f3bf 8f6f 	isb	sy
 8004094:	f3bf 8f4f 	dsb	sy
 8004098:	e7fe      	b.n	8004098 <vTaskStartScheduler+0x70>
 800409a:	bf00      	nop
 800409c:	08005518 	.word	0x08005518
 80040a0:	08003ddd 	.word	0x08003ddd
 80040a4:	20000da0 	.word	0x20000da0
 80040a8:	20000dbc 	.word	0x20000dbc
 80040ac:	20000de8 	.word	0x20000de8

080040b0 <vTaskSuspendAll>:
 80040b0:	4a02      	ldr	r2, [pc, #8]	; (80040bc <vTaskSuspendAll+0xc>)
 80040b2:	6813      	ldr	r3, [r2, #0]
 80040b4:	3301      	adds	r3, #1
 80040b6:	6013      	str	r3, [r2, #0]
 80040b8:	4770      	bx	lr
 80040ba:	bf00      	nop
 80040bc:	20000d6c 	.word	0x20000d6c

080040c0 <xTaskGetTickCount>:
 80040c0:	4b01      	ldr	r3, [pc, #4]	; (80040c8 <xTaskGetTickCount+0x8>)
 80040c2:	6818      	ldr	r0, [r3, #0]
 80040c4:	4770      	bx	lr
 80040c6:	bf00      	nop
 80040c8:	20000de8 	.word	0x20000de8

080040cc <xTaskIncrementTick>:
 80040cc:	e92d 4ff8 	stmdb	sp!, {r3, r4, r5, r6, r7, r8, r9, sl, fp, lr}
 80040d0:	4b3b      	ldr	r3, [pc, #236]	; (80041c0 <xTaskIncrementTick+0xf4>)
 80040d2:	681b      	ldr	r3, [r3, #0]
 80040d4:	2b00      	cmp	r3, #0
 80040d6:	d16b      	bne.n	80041b0 <xTaskIncrementTick+0xe4>
 80040d8:	4b3a      	ldr	r3, [pc, #232]	; (80041c4 <xTaskIncrementTick+0xf8>)
 80040da:	681c      	ldr	r4, [r3, #0]
 80040dc:	3401      	adds	r4, #1
 80040de:	601c      	str	r4, [r3, #0]
 80040e0:	b9bc      	cbnz	r4, 8004112 <xTaskIncrementTick+0x46>
 80040e2:	4b39      	ldr	r3, [pc, #228]	; (80041c8 <xTaskIncrementTick+0xfc>)
 80040e4:	681a      	ldr	r2, [r3, #0]
 80040e6:	6812      	ldr	r2, [r2, #0]
 80040e8:	b142      	cbz	r2, 80040fc <xTaskIncrementTick+0x30>
 80040ea:	f04f 0350 	mov.w	r3, #80	; 0x50
 80040ee:	f383 8811 	msr	BASEPRI, r3
 80040f2:	f3bf 8f6f 	isb	sy
 80040f6:	f3bf 8f4f 	dsb	sy
 80040fa:	e7fe      	b.n	80040fa <xTaskIncrementTick+0x2e>
 80040fc:	4a33      	ldr	r2, [pc, #204]	; (80041cc <xTaskIncrementTick+0x100>)
 80040fe:	6819      	ldr	r1, [r3, #0]
 8004100:	6810      	ldr	r0, [r2, #0]
 8004102:	6018      	str	r0, [r3, #0]
 8004104:	6011      	str	r1, [r2, #0]
 8004106:	4a32      	ldr	r2, [pc, #200]	; (80041d0 <xTaskIncrementTick+0x104>)
 8004108:	6813      	ldr	r3, [r2, #0]
 800410a:	3301      	adds	r3, #1
 800410c:	6013      	str	r3, [r2, #0]
 800410e:	f7ff fe97 	bl	8003e40 <prvResetNextTaskUnblockTime>
 8004112:	4d30      	ldr	r5, [pc, #192]	; (80041d4 <xTaskIncrementTick+0x108>)
 8004114:	f04f 0b00 	mov.w	fp, #0
 8004118:	682b      	ldr	r3, [r5, #0]
 800411a:	4f2f      	ldr	r7, [pc, #188]	; (80041d8 <xTaskIncrementTick+0x10c>)
 800411c:	42a3      	cmp	r3, r4
 800411e:	d911      	bls.n	8004144 <xTaskIncrementTick+0x78>
 8004120:	683a      	ldr	r2, [r7, #0]
 8004122:	4b2e      	ldr	r3, [pc, #184]	; (80041dc <xTaskIncrementTick+0x110>)
 8004124:	6ad1      	ldr	r1, [r2, #44]	; 0x2c
 8004126:	2214      	movs	r2, #20
 8004128:	434a      	muls	r2, r1
 800412a:	589a      	ldr	r2, [r3, r2]
 800412c:	2a02      	cmp	r2, #2
 800412e:	bf28      	it	cs
 8004130:	f04f 0b01 	movcs.w	fp, #1
 8004134:	4a2a      	ldr	r2, [pc, #168]	; (80041e0 <xTaskIncrementTick+0x114>)
 8004136:	6812      	ldr	r2, [r2, #0]
 8004138:	2a00      	cmp	r2, #0
 800413a:	bf0c      	ite	eq
 800413c:	4658      	moveq	r0, fp
 800413e:	2001      	movne	r0, #1
 8004140:	e8bd 8ff8 	ldmia.w	sp!, {r3, r4, r5, r6, r7, r8, r9, sl, fp, pc}
 8004144:	f8df 9080 	ldr.w	r9, [pc, #128]	; 80041c8 <xTaskIncrementTick+0xfc>
 8004148:	f8df a09c 	ldr.w	sl, [pc, #156]	; 80041e8 <xTaskIncrementTick+0x11c>
 800414c:	f8d9 2000 	ldr.w	r2, [r9]
 8004150:	6812      	ldr	r2, [r2, #0]
 8004152:	b91a      	cbnz	r2, 800415c <xTaskIncrementTick+0x90>
 8004154:	f04f 32ff 	mov.w	r2, #4294967295
 8004158:	602a      	str	r2, [r5, #0]
 800415a:	e7e1      	b.n	8004120 <xTaskIncrementTick+0x54>
 800415c:	f8d9 2000 	ldr.w	r2, [r9]
 8004160:	68d2      	ldr	r2, [r2, #12]
 8004162:	68d6      	ldr	r6, [r2, #12]
 8004164:	6871      	ldr	r1, [r6, #4]
 8004166:	428c      	cmp	r4, r1
 8004168:	d201      	bcs.n	800416e <xTaskIncrementTick+0xa2>
 800416a:	6029      	str	r1, [r5, #0]
 800416c:	e7d8      	b.n	8004120 <xTaskIncrementTick+0x54>
 800416e:	f106 0804 	add.w	r8, r6, #4
 8004172:	4640      	mov	r0, r8
 8004174:	f7ff fa83 	bl	800367e <uxListRemove>
 8004178:	6ab1      	ldr	r1, [r6, #40]	; 0x28
 800417a:	b119      	cbz	r1, 8004184 <xTaskIncrementTick+0xb8>
 800417c:	f106 0018 	add.w	r0, r6, #24
 8004180:	f7ff fa7d 	bl	800367e <uxListRemove>
 8004184:	2214      	movs	r2, #20
 8004186:	6af0      	ldr	r0, [r6, #44]	; 0x2c
 8004188:	f8da 1000 	ldr.w	r1, [sl]
 800418c:	4b13      	ldr	r3, [pc, #76]	; (80041dc <xTaskIncrementTick+0x110>)
 800418e:	4288      	cmp	r0, r1
 8004190:	bf88      	it	hi
 8004192:	f8ca 0000 	strhi.w	r0, [sl]
 8004196:	4641      	mov	r1, r8
 8004198:	fb02 3000 	mla	r0, r2, r0, r3
 800419c:	f7ff fa4c 	bl	8003638 <vListInsertEnd>
 80041a0:	6838      	ldr	r0, [r7, #0]
 80041a2:	6af1      	ldr	r1, [r6, #44]	; 0x2c
 80041a4:	6ac2      	ldr	r2, [r0, #44]	; 0x2c
 80041a6:	4291      	cmp	r1, r2
 80041a8:	bf28      	it	cs
 80041aa:	f04f 0b01 	movcs.w	fp, #1
 80041ae:	e7cd      	b.n	800414c <xTaskIncrementTick+0x80>
 80041b0:	4a0c      	ldr	r2, [pc, #48]	; (80041e4 <xTaskIncrementTick+0x118>)
 80041b2:	f04f 0b00 	mov.w	fp, #0
 80041b6:	6813      	ldr	r3, [r2, #0]
 80041b8:	3301      	adds	r3, #1
 80041ba:	6013      	str	r3, [r2, #0]
 80041bc:	e7ba      	b.n	8004134 <xTaskIncrementTick+0x68>
 80041be:	bf00      	nop
 80041c0:	20000d6c 	.word	0x20000d6c
 80041c4:	20000de8 	.word	0x20000de8
 80041c8:	200008f8 	.word	0x200008f8
 80041cc:	200008fc 	.word	0x200008fc
 80041d0:	20000da4 	.word	0x20000da4
 80041d4:	20000da0 	.word	0x20000da0
 80041d8:	200008f4 	.word	0x200008f4
 80041dc:	20000900 	.word	0x20000900
 80041e0:	20000dec 	.word	0x20000dec
 80041e4:	20000d68 	.word	0x20000d68
 80041e8:	20000d74 	.word	0x20000d74

080041ec <xTaskResumeAll>:
 80041ec:	e92d 41f0 	stmdb	sp!, {r4, r5, r6, r7, r8, lr}
 80041f0:	4c2f      	ldr	r4, [pc, #188]	; (80042b0 <xTaskResumeAll+0xc4>)
 80041f2:	6823      	ldr	r3, [r4, #0]
 80041f4:	b943      	cbnz	r3, 8004208 <xTaskResumeAll+0x1c>
 80041f6:	f04f 0350 	mov.w	r3, #80	; 0x50
 80041fa:	f383 8811 	msr	BASEPRI, r3
 80041fe:	f3bf 8f6f 	isb	sy
 8004202:	f3bf 8f4f 	dsb	sy
 8004206:	e7fe      	b.n	8004206 <xTaskResumeAll+0x1a>
 8004208:	f000 fd34 	bl	8004c74 <vPortEnterCritical>
 800420c:	6823      	ldr	r3, [r4, #0]
 800420e:	3b01      	subs	r3, #1
 8004210:	6023      	str	r3, [r4, #0]
 8004212:	6824      	ldr	r4, [r4, #0]
 8004214:	b12c      	cbz	r4, 8004222 <xTaskResumeAll+0x36>
 8004216:	2400      	movs	r4, #0
 8004218:	f000 fd4e 	bl	8004cb8 <vPortExitCritical>
 800421c:	4620      	mov	r0, r4
 800421e:	e8bd 81f0 	ldmia.w	sp!, {r4, r5, r6, r7, r8, pc}
 8004222:	4b24      	ldr	r3, [pc, #144]	; (80042b4 <xTaskResumeAll+0xc8>)
 8004224:	681b      	ldr	r3, [r3, #0]
 8004226:	2b00      	cmp	r3, #0
 8004228:	d0f5      	beq.n	8004216 <xTaskResumeAll+0x2a>
 800422a:	4d23      	ldr	r5, [pc, #140]	; (80042b8 <xTaskResumeAll+0xcc>)
 800422c:	4e23      	ldr	r6, [pc, #140]	; (80042bc <xTaskResumeAll+0xd0>)
 800422e:	f8df 80a0 	ldr.w	r8, [pc, #160]	; 80042d0 <xTaskResumeAll+0xe4>
 8004232:	e01d      	b.n	8004270 <xTaskResumeAll+0x84>
 8004234:	68eb      	ldr	r3, [r5, #12]
 8004236:	68dc      	ldr	r4, [r3, #12]
 8004238:	1d27      	adds	r7, r4, #4
 800423a:	f104 0018 	add.w	r0, r4, #24
 800423e:	f7ff fa1e 	bl	800367e <uxListRemove>
 8004242:	4638      	mov	r0, r7
 8004244:	f7ff fa1b 	bl	800367e <uxListRemove>
 8004248:	2014      	movs	r0, #20
 800424a:	6ae3      	ldr	r3, [r4, #44]	; 0x2c
 800424c:	6832      	ldr	r2, [r6, #0]
 800424e:	fb00 8003 	mla	r0, r0, r3, r8
 8004252:	4293      	cmp	r3, r2
 8004254:	4639      	mov	r1, r7
 8004256:	bf88      	it	hi
 8004258:	6033      	strhi	r3, [r6, #0]
 800425a:	f7ff f9ed 	bl	8003638 <vListInsertEnd>
 800425e:	4b18      	ldr	r3, [pc, #96]	; (80042c0 <xTaskResumeAll+0xd4>)
 8004260:	6ae2      	ldr	r2, [r4, #44]	; 0x2c
 8004262:	681b      	ldr	r3, [r3, #0]
 8004264:	6adb      	ldr	r3, [r3, #44]	; 0x2c
 8004266:	429a      	cmp	r2, r3
 8004268:	d302      	bcc.n	8004270 <xTaskResumeAll+0x84>
 800426a:	2201      	movs	r2, #1
 800426c:	4b15      	ldr	r3, [pc, #84]	; (80042c4 <xTaskResumeAll+0xd8>)
 800426e:	601a      	str	r2, [r3, #0]
 8004270:	682b      	ldr	r3, [r5, #0]
 8004272:	2b00      	cmp	r3, #0
 8004274:	d1de      	bne.n	8004234 <xTaskResumeAll+0x48>
 8004276:	b10c      	cbz	r4, 800427c <xTaskResumeAll+0x90>
 8004278:	f7ff fde2 	bl	8003e40 <prvResetNextTaskUnblockTime>
 800427c:	4d12      	ldr	r5, [pc, #72]	; (80042c8 <xTaskResumeAll+0xdc>)
 800427e:	682c      	ldr	r4, [r5, #0]
 8004280:	b144      	cbz	r4, 8004294 <xTaskResumeAll+0xa8>
 8004282:	2701      	movs	r7, #1
 8004284:	4e0f      	ldr	r6, [pc, #60]	; (80042c4 <xTaskResumeAll+0xd8>)
 8004286:	f7ff ff21 	bl	80040cc <xTaskIncrementTick>
 800428a:	b100      	cbz	r0, 800428e <xTaskResumeAll+0xa2>
 800428c:	6037      	str	r7, [r6, #0]
 800428e:	3c01      	subs	r4, #1
 8004290:	d1f9      	bne.n	8004286 <xTaskResumeAll+0x9a>
 8004292:	602c      	str	r4, [r5, #0]
 8004294:	4b0b      	ldr	r3, [pc, #44]	; (80042c4 <xTaskResumeAll+0xd8>)
 8004296:	681b      	ldr	r3, [r3, #0]
 8004298:	2b00      	cmp	r3, #0
 800429a:	d0bc      	beq.n	8004216 <xTaskResumeAll+0x2a>
 800429c:	f04f 5280 	mov.w	r2, #268435456	; 0x10000000
 80042a0:	4b0a      	ldr	r3, [pc, #40]	; (80042cc <xTaskResumeAll+0xe0>)
 80042a2:	601a      	str	r2, [r3, #0]
 80042a4:	f3bf 8f4f 	dsb	sy
 80042a8:	f3bf 8f6f 	isb	sy
 80042ac:	2401      	movs	r4, #1
 80042ae:	e7b3      	b.n	8004218 <xTaskResumeAll+0x2c>
 80042b0:	20000d6c 	.word	0x20000d6c
 80042b4:	20000d60 	.word	0x20000d60
 80042b8:	20000da8 	.word	0x20000da8
 80042bc:	20000d74 	.word	0x20000d74
 80042c0:	200008f4 	.word	0x200008f4
 80042c4:	20000dec 	.word	0x20000dec
 80042c8:	20000d68 	.word	0x20000d68
 80042cc:	e000ed04 	.word	0xe000ed04
 80042d0:	20000900 	.word	0x20000900

080042d4 <vTaskDelay>:
 80042d4:	b508      	push	{r3, lr}
 80042d6:	b940      	cbnz	r0, 80042ea <vTaskDelay+0x16>
 80042d8:	f04f 5280 	mov.w	r2, #268435456	; 0x10000000
 80042dc:	4b0d      	ldr	r3, [pc, #52]	; (8004314 <vTaskDelay+0x40>)
 80042de:	601a      	str	r2, [r3, #0]
 80042e0:	f3bf 8f4f 	dsb	sy
 80042e4:	f3bf 8f6f 	isb	sy
 80042e8:	bd08      	pop	{r3, pc}
 80042ea:	4b0b      	ldr	r3, [pc, #44]	; (8004318 <vTaskDelay+0x44>)
 80042ec:	6819      	ldr	r1, [r3, #0]
 80042ee:	b141      	cbz	r1, 8004302 <vTaskDelay+0x2e>
 80042f0:	f04f 0350 	mov.w	r3, #80	; 0x50
 80042f4:	f383 8811 	msr	BASEPRI, r3
 80042f8:	f3bf 8f6f 	isb	sy
 80042fc:	f3bf 8f4f 	dsb	sy
 8004300:	e7fe      	b.n	8004300 <vTaskDelay+0x2c>
 8004302:	f7ff fed5 	bl	80040b0 <vTaskSuspendAll>
 8004306:	f7ff fdf1 	bl	8003eec <prvAddCurrentTaskToDelayedList>
 800430a:	f7ff ff6f 	bl	80041ec <xTaskResumeAll>
 800430e:	2800      	cmp	r0, #0
 8004310:	d0e2      	beq.n	80042d8 <vTaskDelay+0x4>
 8004312:	e7e9      	b.n	80042e8 <vTaskDelay+0x14>
 8004314:	e000ed04 	.word	0xe000ed04
 8004318:	20000d6c 	.word	0x20000d6c

0800431c <vTaskSwitchContext>:
 800431c:	4b18      	ldr	r3, [pc, #96]	; (8004380 <vTaskSwitchContext+0x64>)
 800431e:	b5f0      	push	{r4, r5, r6, r7, lr}
 8004320:	681a      	ldr	r2, [r3, #0]
 8004322:	4b18      	ldr	r3, [pc, #96]	; (8004384 <vTaskSwitchContext+0x68>)
 8004324:	b112      	cbz	r2, 800432c <vTaskSwitchContext+0x10>
 8004326:	2201      	movs	r2, #1
 8004328:	601a      	str	r2, [r3, #0]
 800432a:	bdf0      	pop	{r4, r5, r6, r7, pc}
 800432c:	601a      	str	r2, [r3, #0]
 800432e:	4a16      	ldr	r2, [pc, #88]	; (8004388 <vTaskSwitchContext+0x6c>)
 8004330:	2714      	movs	r7, #20
 8004332:	4616      	mov	r6, r2
 8004334:	4d15      	ldr	r5, [pc, #84]	; (800438c <vTaskSwitchContext+0x70>)
 8004336:	682b      	ldr	r3, [r5, #0]
 8004338:	fb07 f103 	mul.w	r1, r7, r3
 800433c:	5854      	ldr	r4, [r2, r1]
 800433e:	1850      	adds	r0, r2, r1
 8004340:	b194      	cbz	r4, 8004368 <vTaskSwitchContext+0x4c>
 8004342:	6844      	ldr	r4, [r0, #4]
 8004344:	3108      	adds	r1, #8
 8004346:	6864      	ldr	r4, [r4, #4]
 8004348:	440a      	add	r2, r1
 800434a:	4294      	cmp	r4, r2
 800434c:	bf08      	it	eq
 800434e:	6862      	ldreq	r2, [r4, #4]
 8004350:	6044      	str	r4, [r0, #4]
 8004352:	bf08      	it	eq
 8004354:	6042      	streq	r2, [r0, #4]
 8004356:	2214      	movs	r2, #20
 8004358:	fb02 6203 	mla	r2, r2, r3, r6
 800435c:	6852      	ldr	r2, [r2, #4]
 800435e:	68d1      	ldr	r1, [r2, #12]
 8004360:	4a0b      	ldr	r2, [pc, #44]	; (8004390 <vTaskSwitchContext+0x74>)
 8004362:	6011      	str	r1, [r2, #0]
 8004364:	602b      	str	r3, [r5, #0]
 8004366:	e7e0      	b.n	800432a <vTaskSwitchContext+0xe>
 8004368:	b943      	cbnz	r3, 800437c <vTaskSwitchContext+0x60>
 800436a:	f04f 0350 	mov.w	r3, #80	; 0x50
 800436e:	f383 8811 	msr	BASEPRI, r3
 8004372:	f3bf 8f6f 	isb	sy
 8004376:	f3bf 8f4f 	dsb	sy
 800437a:	e7fe      	b.n	800437a <vTaskSwitchContext+0x5e>
 800437c:	3b01      	subs	r3, #1
 800437e:	e7db      	b.n	8004338 <vTaskSwitchContext+0x1c>
 8004380:	20000d6c 	.word	0x20000d6c
 8004384:	20000dec 	.word	0x20000dec
 8004388:	20000900 	.word	0x20000900
 800438c:	20000d74 	.word	0x20000d74
 8004390:	200008f4 	.word	0x200008f4

08004394 <vTaskPlaceOnEventList>:
 8004394:	b510      	push	{r4, lr}
 8004396:	460c      	mov	r4, r1
 8004398:	b940      	cbnz	r0, 80043ac <vTaskPlaceOnEventList+0x18>
 800439a:	f04f 0350 	mov.w	r3, #80	; 0x50
 800439e:	f383 8811 	msr	BASEPRI, r3
 80043a2:	f3bf 8f6f 	isb	sy
 80043a6:	f3bf 8f4f 	dsb	sy
 80043aa:	e7fe      	b.n	80043aa <vTaskPlaceOnEventList+0x16>
 80043ac:	4b05      	ldr	r3, [pc, #20]	; (80043c4 <vTaskPlaceOnEventList+0x30>)
 80043ae:	6819      	ldr	r1, [r3, #0]
 80043b0:	3118      	adds	r1, #24
 80043b2:	f7ff f94d 	bl	8003650 <vListInsert>
 80043b6:	4620      	mov	r0, r4
 80043b8:	e8bd 4010 	ldmia.w	sp!, {r4, lr}
 80043bc:	2101      	movs	r1, #1
 80043be:	f7ff bd95 	b.w	8003eec <prvAddCurrentTaskToDelayedList>
 80043c2:	bf00      	nop
 80043c4:	200008f4 	.word	0x200008f4

080043c8 <vTaskPlaceOnEventListRestricted>:
 80043c8:	b538      	push	{r3, r4, r5, lr}
 80043ca:	460d      	mov	r5, r1
 80043cc:	4614      	mov	r4, r2
 80043ce:	b940      	cbnz	r0, 80043e2 <vTaskPlaceOnEventListRestricted+0x1a>
 80043d0:	f04f 0350 	mov.w	r3, #80	; 0x50
 80043d4:	f383 8811 	msr	BASEPRI, r3
 80043d8:	f3bf 8f6f 	isb	sy
 80043dc:	f3bf 8f4f 	dsb	sy
 80043e0:	e7fe      	b.n	80043e0 <vTaskPlaceOnEventListRestricted+0x18>
 80043e2:	4b08      	ldr	r3, [pc, #32]	; (8004404 <vTaskPlaceOnEventListRestricted+0x3c>)
 80043e4:	6819      	ldr	r1, [r3, #0]
 80043e6:	3118      	adds	r1, #24
 80043e8:	f7ff f926 	bl	8003638 <vListInsertEnd>
 80043ec:	2c00      	cmp	r4, #0
 80043ee:	4621      	mov	r1, r4
 80043f0:	bf08      	it	eq
 80043f2:	4628      	moveq	r0, r5
 80043f4:	e8bd 4038 	ldmia.w	sp!, {r3, r4, r5, lr}
 80043f8:	bf18      	it	ne
 80043fa:	f04f 30ff 	movne.w	r0, #4294967295
 80043fe:	f7ff bd75 	b.w	8003eec <prvAddCurrentTaskToDelayedList>
 8004402:	bf00      	nop
 8004404:	200008f4 	.word	0x200008f4

08004408 <xTaskRemoveFromEventList>:
 8004408:	b538      	push	{r3, r4, r5, lr}
 800440a:	68c3      	ldr	r3, [r0, #12]
 800440c:	68dc      	ldr	r4, [r3, #12]
 800440e:	b944      	cbnz	r4, 8004422 <xTaskRemoveFromEventList+0x1a>
 8004410:	f04f 0350 	mov.w	r3, #80	; 0x50
 8004414:	f383 8811 	msr	BASEPRI, r3
 8004418:	f3bf 8f6f 	isb	sy
 800441c:	f3bf 8f4f 	dsb	sy
 8004420:	e7fe      	b.n	8004420 <xTaskRemoveFromEventList+0x18>
 8004422:	f104 0518 	add.w	r5, r4, #24
 8004426:	4628      	mov	r0, r5
 8004428:	f7ff f929 	bl	800367e <uxListRemove>
 800442c:	4b10      	ldr	r3, [pc, #64]	; (8004470 <xTaskRemoveFromEventList+0x68>)
 800442e:	681b      	ldr	r3, [r3, #0]
 8004430:	b9db      	cbnz	r3, 800446a <xTaskRemoveFromEventList+0x62>
 8004432:	1d25      	adds	r5, r4, #4
 8004434:	4628      	mov	r0, r5
 8004436:	f7ff f922 	bl	800367e <uxListRemove>
 800443a:	4a0e      	ldr	r2, [pc, #56]	; (8004474 <xTaskRemoveFromEventList+0x6c>)
 800443c:	2014      	movs	r0, #20
 800443e:	6811      	ldr	r1, [r2, #0]
 8004440:	6ae3      	ldr	r3, [r4, #44]	; 0x2c
 8004442:	428b      	cmp	r3, r1
 8004444:	4629      	mov	r1, r5
 8004446:	bf88      	it	hi
 8004448:	6013      	strhi	r3, [r2, #0]
 800444a:	4a0b      	ldr	r2, [pc, #44]	; (8004478 <xTaskRemoveFromEventList+0x70>)
 800444c:	fb00 2003 	mla	r0, r0, r3, r2
 8004450:	f7ff f8f2 	bl	8003638 <vListInsertEnd>
 8004454:	4b09      	ldr	r3, [pc, #36]	; (800447c <xTaskRemoveFromEventList+0x74>)
 8004456:	6ae2      	ldr	r2, [r4, #44]	; 0x2c
 8004458:	681b      	ldr	r3, [r3, #0]
 800445a:	6adb      	ldr	r3, [r3, #44]	; 0x2c
 800445c:	429a      	cmp	r2, r3
 800445e:	bf85      	ittet	hi
 8004460:	2001      	movhi	r0, #1
 8004462:	4b07      	ldrhi	r3, [pc, #28]	; (8004480 <xTaskRemoveFromEventList+0x78>)
 8004464:	2000      	movls	r0, #0
 8004466:	6018      	strhi	r0, [r3, #0]
 8004468:	bd38      	pop	{r3, r4, r5, pc}
 800446a:	4629      	mov	r1, r5
 800446c:	4805      	ldr	r0, [pc, #20]	; (8004484 <xTaskRemoveFromEventList+0x7c>)
 800446e:	e7ef      	b.n	8004450 <xTaskRemoveFromEventList+0x48>
 8004470:	20000d6c 	.word	0x20000d6c
 8004474:	20000d74 	.word	0x20000d74
 8004478:	20000900 	.word	0x20000900
 800447c:	200008f4 	.word	0x200008f4
 8004480:	20000dec 	.word	0x20000dec
 8004484:	20000da8 	.word	0x20000da8

08004488 <vTaskInternalSetTimeOutState>:
 8004488:	4b03      	ldr	r3, [pc, #12]	; (8004498 <vTaskInternalSetTimeOutState+0x10>)
 800448a:	681b      	ldr	r3, [r3, #0]
 800448c:	6003      	str	r3, [r0, #0]
 800448e:	4b03      	ldr	r3, [pc, #12]	; (800449c <vTaskInternalSetTimeOutState+0x14>)
 8004490:	681b      	ldr	r3, [r3, #0]
 8004492:	6043      	str	r3, [r0, #4]
 8004494:	4770      	bx	lr
 8004496:	bf00      	nop
 8004498:	20000da4 	.word	0x20000da4
 800449c:	20000de8 	.word	0x20000de8

080044a0 <xTaskCheckForTimeOut>:
 80044a0:	b5f8      	push	{r3, r4, r5, r6, r7, lr}
 80044a2:	460c      	mov	r4, r1
 80044a4:	4605      	mov	r5, r0
 80044a6:	b940      	cbnz	r0, 80044ba <xTaskCheckForTimeOut+0x1a>
 80044a8:	f04f 0350 	mov.w	r3, #80	; 0x50
 80044ac:	f383 8811 	msr	BASEPRI, r3
 80044b0:	f3bf 8f6f 	isb	sy
 80044b4:	f3bf 8f4f 	dsb	sy
 80044b8:	e7fe      	b.n	80044b8 <xTaskCheckForTimeOut+0x18>
 80044ba:	b941      	cbnz	r1, 80044ce <xTaskCheckForTimeOut+0x2e>
 80044bc:	f04f 0350 	mov.w	r3, #80	; 0x50
 80044c0:	f383 8811 	msr	BASEPRI, r3
 80044c4:	f3bf 8f6f 	isb	sy
 80044c8:	f3bf 8f4f 	dsb	sy
 80044cc:	e7fe      	b.n	80044cc <xTaskCheckForTimeOut+0x2c>
 80044ce:	f000 fbd1 	bl	8004c74 <vPortEnterCritical>
 80044d2:	4b0f      	ldr	r3, [pc, #60]	; (8004510 <xTaskCheckForTimeOut+0x70>)
 80044d4:	6868      	ldr	r0, [r5, #4]
 80044d6:	6819      	ldr	r1, [r3, #0]
 80044d8:	6823      	ldr	r3, [r4, #0]
 80044da:	1a0a      	subs	r2, r1, r0
 80044dc:	1c5e      	adds	r6, r3, #1
 80044de:	d00d      	beq.n	80044fc <xTaskCheckForTimeOut+0x5c>
 80044e0:	4e0c      	ldr	r6, [pc, #48]	; (8004514 <xTaskCheckForTimeOut+0x74>)
 80044e2:	682f      	ldr	r7, [r5, #0]
 80044e4:	6836      	ldr	r6, [r6, #0]
 80044e6:	42b7      	cmp	r7, r6
 80044e8:	d001      	beq.n	80044ee <xTaskCheckForTimeOut+0x4e>
 80044ea:	4288      	cmp	r0, r1
 80044ec:	d90d      	bls.n	800450a <xTaskCheckForTimeOut+0x6a>
 80044ee:	4293      	cmp	r3, r2
 80044f0:	d909      	bls.n	8004506 <xTaskCheckForTimeOut+0x66>
 80044f2:	1a9b      	subs	r3, r3, r2
 80044f4:	6023      	str	r3, [r4, #0]
 80044f6:	4628      	mov	r0, r5
 80044f8:	f7ff ffc6 	bl	8004488 <vTaskInternalSetTimeOutState>
 80044fc:	2400      	movs	r4, #0
 80044fe:	f000 fbdb 	bl	8004cb8 <vPortExitCritical>
 8004502:	4620      	mov	r0, r4
 8004504:	bdf8      	pop	{r3, r4, r5, r6, r7, pc}
 8004506:	2300      	movs	r3, #0
 8004508:	6023      	str	r3, [r4, #0]
 800450a:	2401      	movs	r4, #1
 800450c:	e7f7      	b.n	80044fe <xTaskCheckForTimeOut+0x5e>
 800450e:	bf00      	nop
 8004510:	20000de8 	.word	0x20000de8
 8004514:	20000da4 	.word	0x20000da4

08004518 <vTaskMissedYield>:
 8004518:	2201      	movs	r2, #1
 800451a:	4b01      	ldr	r3, [pc, #4]	; (8004520 <vTaskMissedYield+0x8>)
 800451c:	601a      	str	r2, [r3, #0]
 800451e:	4770      	bx	lr
 8004520:	20000dec 	.word	0x20000dec

08004524 <xTaskGetSchedulerState>:
 8004524:	4b05      	ldr	r3, [pc, #20]	; (800453c <xTaskGetSchedulerState+0x18>)
 8004526:	681b      	ldr	r3, [r3, #0]
 8004528:	b133      	cbz	r3, 8004538 <xTaskGetSchedulerState+0x14>
 800452a:	4b05      	ldr	r3, [pc, #20]	; (8004540 <xTaskGetSchedulerState+0x1c>)
 800452c:	681b      	ldr	r3, [r3, #0]
 800452e:	2b00      	cmp	r3, #0
 8004530:	bf0c      	ite	eq
 8004532:	2002      	moveq	r0, #2
 8004534:	2000      	movne	r0, #0
 8004536:	4770      	bx	lr
 8004538:	2001      	movs	r0, #1
 800453a:	4770      	bx	lr
 800453c:	20000dbc 	.word	0x20000dbc
 8004540:	20000d6c 	.word	0x20000d6c

08004544 <xTaskPriorityDisinherit>:
 8004544:	b538      	push	{r3, r4, r5, lr}
 8004546:	b908      	cbnz	r0, 800454c <xTaskPriorityDisinherit+0x8>
 8004548:	2000      	movs	r0, #0
 800454a:	bd38      	pop	{r3, r4, r5, pc}
 800454c:	4b1b      	ldr	r3, [pc, #108]	; (80045bc <xTaskPriorityDisinherit+0x78>)
 800454e:	681c      	ldr	r4, [r3, #0]
 8004550:	4284      	cmp	r4, r0
 8004552:	d008      	beq.n	8004566 <xTaskPriorityDisinherit+0x22>
 8004554:	f04f 0350 	mov.w	r3, #80	; 0x50
 8004558:	f383 8811 	msr	BASEPRI, r3
 800455c:	f3bf 8f6f 	isb	sy
 8004560:	f3bf 8f4f 	dsb	sy
 8004564:	e7fe      	b.n	8004564 <xTaskPriorityDisinherit+0x20>
 8004566:	6d23      	ldr	r3, [r4, #80]	; 0x50
 8004568:	b943      	cbnz	r3, 800457c <xTaskPriorityDisinherit+0x38>
 800456a:	f04f 0350 	mov.w	r3, #80	; 0x50
 800456e:	f383 8811 	msr	BASEPRI, r3
 8004572:	f3bf 8f6f 	isb	sy
 8004576:	f3bf 8f4f 	dsb	sy
 800457a:	e7fe      	b.n	800457a <xTaskPriorityDisinherit+0x36>
 800457c:	6ae1      	ldr	r1, [r4, #44]	; 0x2c
 800457e:	6ce2      	ldr	r2, [r4, #76]	; 0x4c
 8004580:	3b01      	subs	r3, #1
 8004582:	4291      	cmp	r1, r2
 8004584:	6523      	str	r3, [r4, #80]	; 0x50
 8004586:	d0df      	beq.n	8004548 <xTaskPriorityDisinherit+0x4>
 8004588:	2b00      	cmp	r3, #0
 800458a:	d1dd      	bne.n	8004548 <xTaskPriorityDisinherit+0x4>
 800458c:	1d25      	adds	r5, r4, #4
 800458e:	4628      	mov	r0, r5
 8004590:	f7ff f875 	bl	800367e <uxListRemove>
 8004594:	2014      	movs	r0, #20
 8004596:	6ce3      	ldr	r3, [r4, #76]	; 0x4c
 8004598:	f1c3 0238 	rsb	r2, r3, #56	; 0x38
 800459c:	61a2      	str	r2, [r4, #24]
 800459e:	4a08      	ldr	r2, [pc, #32]	; (80045c0 <xTaskPriorityDisinherit+0x7c>)
 80045a0:	62e3      	str	r3, [r4, #44]	; 0x2c
 80045a2:	6811      	ldr	r1, [r2, #0]
 80045a4:	428b      	cmp	r3, r1
 80045a6:	bf88      	it	hi
 80045a8:	6013      	strhi	r3, [r2, #0]
 80045aa:	4a06      	ldr	r2, [pc, #24]	; (80045c4 <xTaskPriorityDisinherit+0x80>)
 80045ac:	4629      	mov	r1, r5
 80045ae:	fb00 2003 	mla	r0, r0, r3, r2
 80045b2:	f7ff f841 	bl	8003638 <vListInsertEnd>
 80045b6:	2001      	movs	r0, #1
 80045b8:	e7c7      	b.n	800454a <xTaskPriorityDisinherit+0x6>
 80045ba:	bf00      	nop
 80045bc:	200008f4 	.word	0x200008f4
 80045c0:	20000d74 	.word	0x20000d74
 80045c4:	20000900 	.word	0x20000900

080045c8 <xTaskNotifyWait>:
 80045c8:	e92d 41f0 	stmdb	sp!, {r4, r5, r6, r7, r8, lr}
 80045cc:	4c1e      	ldr	r4, [pc, #120]	; (8004648 <xTaskNotifyWait+0x80>)
 80045ce:	461e      	mov	r6, r3
 80045d0:	4680      	mov	r8, r0
 80045d2:	460f      	mov	r7, r1
 80045d4:	4615      	mov	r5, r2
 80045d6:	f000 fb4d 	bl	8004c74 <vPortEnterCritical>
 80045da:	6823      	ldr	r3, [r4, #0]
 80045dc:	f893 3058 	ldrb.w	r3, [r3, #88]	; 0x58
 80045e0:	2b02      	cmp	r3, #2
 80045e2:	d014      	beq.n	800460e <xTaskNotifyWait+0x46>
 80045e4:	2101      	movs	r1, #1
 80045e6:	6823      	ldr	r3, [r4, #0]
 80045e8:	6d5a      	ldr	r2, [r3, #84]	; 0x54
 80045ea:	ea22 0208 	bic.w	r2, r2, r8
 80045ee:	655a      	str	r2, [r3, #84]	; 0x54
 80045f0:	6823      	ldr	r3, [r4, #0]
 80045f2:	f883 1058 	strb.w	r1, [r3, #88]	; 0x58
 80045f6:	b156      	cbz	r6, 800460e <xTaskNotifyWait+0x46>
 80045f8:	4630      	mov	r0, r6
 80045fa:	f7ff fc77 	bl	8003eec <prvAddCurrentTaskToDelayedList>
 80045fe:	f04f 5280 	mov.w	r2, #268435456	; 0x10000000
 8004602:	4b12      	ldr	r3, [pc, #72]	; (800464c <xTaskNotifyWait+0x84>)
 8004604:	601a      	str	r2, [r3, #0]
 8004606:	f3bf 8f4f 	dsb	sy
 800460a:	f3bf 8f6f 	isb	sy
 800460e:	f000 fb53 	bl	8004cb8 <vPortExitCritical>
 8004612:	f000 fb2f 	bl	8004c74 <vPortEnterCritical>
 8004616:	b115      	cbz	r5, 800461e <xTaskNotifyWait+0x56>
 8004618:	6823      	ldr	r3, [r4, #0]
 800461a:	6d5b      	ldr	r3, [r3, #84]	; 0x54
 800461c:	602b      	str	r3, [r5, #0]
 800461e:	6823      	ldr	r3, [r4, #0]
 8004620:	2200      	movs	r2, #0
 8004622:	f893 3058 	ldrb.w	r3, [r3, #88]	; 0x58
 8004626:	2b02      	cmp	r3, #2
 8004628:	bf09      	itett	eq
 800462a:	2501      	moveq	r5, #1
 800462c:	2500      	movne	r5, #0
 800462e:	6823      	ldreq	r3, [r4, #0]
 8004630:	6d59      	ldreq	r1, [r3, #84]	; 0x54
 8004632:	bf04      	itt	eq
 8004634:	43b9      	biceq	r1, r7
 8004636:	6559      	streq	r1, [r3, #84]	; 0x54
 8004638:	6823      	ldr	r3, [r4, #0]
 800463a:	f883 2058 	strb.w	r2, [r3, #88]	; 0x58
 800463e:	f000 fb3b 	bl	8004cb8 <vPortExitCritical>
 8004642:	4628      	mov	r0, r5
 8004644:	e8bd 81f0 	ldmia.w	sp!, {r4, r5, r6, r7, r8, pc}
 8004648:	200008f4 	.word	0x200008f4
 800464c:	e000ed04 	.word	0xe000ed04

08004650 <xTaskGenericNotify>:
 8004650:	b5f8      	push	{r3, r4, r5, r6, r7, lr}
 8004652:	460e      	mov	r6, r1
 8004654:	4615      	mov	r5, r2
 8004656:	461f      	mov	r7, r3
 8004658:	4604      	mov	r4, r0
 800465a:	b940      	cbnz	r0, 800466e <xTaskGenericNotify+0x1e>
 800465c:	f04f 0350 	mov.w	r3, #80	; 0x50
 8004660:	f383 8811 	msr	BASEPRI, r3
 8004664:	f3bf 8f6f 	isb	sy
 8004668:	f3bf 8f4f 	dsb	sy
 800466c:	e7fe      	b.n	800466c <xTaskGenericNotify+0x1c>
 800466e:	f000 fb01 	bl	8004c74 <vPortEnterCritical>
 8004672:	b10f      	cbz	r7, 8004678 <xTaskGenericNotify+0x28>
 8004674:	6d63      	ldr	r3, [r4, #84]	; 0x54
 8004676:	603b      	str	r3, [r7, #0]
 8004678:	2202      	movs	r2, #2
 800467a:	f894 3058 	ldrb.w	r3, [r4, #88]	; 0x58
 800467e:	f884 2058 	strb.w	r2, [r4, #88]	; 0x58
 8004682:	1e6a      	subs	r2, r5, #1
 8004684:	b2db      	uxtb	r3, r3
 8004686:	2a03      	cmp	r2, #3
 8004688:	d80a      	bhi.n	80046a0 <xTaskGenericNotify+0x50>
 800468a:	e8df f002 	tbb	[pc, r2]
 800468e:	0602      	.short	0x0602
 8004690:	1004      	.short	0x1004
 8004692:	6d61      	ldr	r1, [r4, #84]	; 0x54
 8004694:	430e      	orrs	r6, r1
 8004696:	6566      	str	r6, [r4, #84]	; 0x54
 8004698:	e002      	b.n	80046a0 <xTaskGenericNotify+0x50>
 800469a:	6d62      	ldr	r2, [r4, #84]	; 0x54
 800469c:	3201      	adds	r2, #1
 800469e:	6562      	str	r2, [r4, #84]	; 0x54
 80046a0:	2b01      	cmp	r3, #1
 80046a2:	d008      	beq.n	80046b6 <xTaskGenericNotify+0x66>
 80046a4:	2401      	movs	r4, #1
 80046a6:	f000 fb07 	bl	8004cb8 <vPortExitCritical>
 80046aa:	4620      	mov	r0, r4
 80046ac:	bdf8      	pop	{r3, r4, r5, r6, r7, pc}
 80046ae:	2b02      	cmp	r3, #2
 80046b0:	d1f1      	bne.n	8004696 <xTaskGenericNotify+0x46>
 80046b2:	2400      	movs	r4, #0
 80046b4:	e7f7      	b.n	80046a6 <xTaskGenericNotify+0x56>
 80046b6:	1d25      	adds	r5, r4, #4
 80046b8:	4628      	mov	r0, r5
 80046ba:	f7fe ffe0 	bl	800367e <uxListRemove>
 80046be:	2014      	movs	r0, #20
 80046c0:	4a12      	ldr	r2, [pc, #72]	; (800470c <xTaskGenericNotify+0xbc>)
 80046c2:	6ae3      	ldr	r3, [r4, #44]	; 0x2c
 80046c4:	6811      	ldr	r1, [r2, #0]
 80046c6:	428b      	cmp	r3, r1
 80046c8:	bf88      	it	hi
 80046ca:	6013      	strhi	r3, [r2, #0]
 80046cc:	4a10      	ldr	r2, [pc, #64]	; (8004710 <xTaskGenericNotify+0xc0>)
 80046ce:	4629      	mov	r1, r5
 80046d0:	fb00 2003 	mla	r0, r0, r3, r2
 80046d4:	f7fe ffb0 	bl	8003638 <vListInsertEnd>
 80046d8:	6aa3      	ldr	r3, [r4, #40]	; 0x28
 80046da:	b143      	cbz	r3, 80046ee <xTaskGenericNotify+0x9e>
 80046dc:	f04f 0350 	mov.w	r3, #80	; 0x50
 80046e0:	f383 8811 	msr	BASEPRI, r3
 80046e4:	f3bf 8f6f 	isb	sy
 80046e8:	f3bf 8f4f 	dsb	sy
 80046ec:	e7fe      	b.n	80046ec <xTaskGenericNotify+0x9c>
 80046ee:	4b09      	ldr	r3, [pc, #36]	; (8004714 <xTaskGenericNotify+0xc4>)
 80046f0:	6ae2      	ldr	r2, [r4, #44]	; 0x2c
 80046f2:	681b      	ldr	r3, [r3, #0]
 80046f4:	6adb      	ldr	r3, [r3, #44]	; 0x2c
 80046f6:	429a      	cmp	r2, r3
 80046f8:	d9d4      	bls.n	80046a4 <xTaskGenericNotify+0x54>
 80046fa:	f04f 5280 	mov.w	r2, #268435456	; 0x10000000
 80046fe:	4b06      	ldr	r3, [pc, #24]	; (8004718 <xTaskGenericNotify+0xc8>)
 8004700:	601a      	str	r2, [r3, #0]
 8004702:	f3bf 8f4f 	dsb	sy
 8004706:	f3bf 8f6f 	isb	sy
 800470a:	e7cb      	b.n	80046a4 <xTaskGenericNotify+0x54>
 800470c:	20000d74 	.word	0x20000d74
 8004710:	20000900 	.word	0x20000900
 8004714:	200008f4 	.word	0x200008f4
 8004718:	e000ed04 	.word	0xe000ed04

0800471c <xTaskGenericNotifyFromISR>:
 800471c:	e92d 43f8 	stmdb	sp!, {r3, r4, r5, r6, r7, r8, r9, lr}
 8004720:	9f08      	ldr	r7, [sp, #32]
 8004722:	4688      	mov	r8, r1
 8004724:	4615      	mov	r5, r2
 8004726:	4699      	mov	r9, r3
 8004728:	4604      	mov	r4, r0
 800472a:	b940      	cbnz	r0, 800473e <xTaskGenericNotifyFromISR+0x22>
 800472c:	f04f 0350 	mov.w	r3, #80	; 0x50
 8004730:	f383 8811 	msr	BASEPRI, r3
 8004734:	f3bf 8f6f 	isb	sy
 8004738:	f3bf 8f4f 	dsb	sy
 800473c:	e7fe      	b.n	800473c <xTaskGenericNotifyFromISR+0x20>
 800473e:	f000 fb7b 	bl	8004e38 <vPortValidateInterruptPriority>
 8004742:	f3ef 8611 	mrs	r6, BASEPRI
 8004746:	f04f 0350 	mov.w	r3, #80	; 0x50
 800474a:	f383 8811 	msr	BASEPRI, r3
 800474e:	f3bf 8f6f 	isb	sy
 8004752:	f3bf 8f4f 	dsb	sy
 8004756:	f1b9 0f00 	cmp.w	r9, #0
 800475a:	d002      	beq.n	8004762 <xTaskGenericNotifyFromISR+0x46>
 800475c:	6d63      	ldr	r3, [r4, #84]	; 0x54
 800475e:	f8c9 3000 	str.w	r3, [r9]
 8004762:	2202      	movs	r2, #2
 8004764:	f894 3058 	ldrb.w	r3, [r4, #88]	; 0x58
 8004768:	f884 2058 	strb.w	r2, [r4, #88]	; 0x58
 800476c:	1e6a      	subs	r2, r5, #1
 800476e:	b2db      	uxtb	r3, r3
 8004770:	2a03      	cmp	r2, #3
 8004772:	d807      	bhi.n	8004784 <xTaskGenericNotifyFromISR+0x68>
 8004774:	e8df f002 	tbb	[pc, r2]
 8004778:	11130d02 	.word	0x11130d02
 800477c:	6d61      	ldr	r1, [r4, #84]	; 0x54
 800477e:	ea41 0108 	orr.w	r1, r1, r8
 8004782:	6561      	str	r1, [r4, #84]	; 0x54
 8004784:	2b01      	cmp	r3, #1
 8004786:	d00d      	beq.n	80047a4 <xTaskGenericNotifyFromISR+0x88>
 8004788:	2001      	movs	r0, #1
 800478a:	f386 8811 	msr	BASEPRI, r6
 800478e:	e8bd 83f8 	ldmia.w	sp!, {r3, r4, r5, r6, r7, r8, r9, pc}
 8004792:	6d62      	ldr	r2, [r4, #84]	; 0x54
 8004794:	3201      	adds	r2, #1
 8004796:	6562      	str	r2, [r4, #84]	; 0x54
 8004798:	e7f4      	b.n	8004784 <xTaskGenericNotifyFromISR+0x68>
 800479a:	2b02      	cmp	r3, #2
 800479c:	d032      	beq.n	8004804 <xTaskGenericNotifyFromISR+0xe8>
 800479e:	f8c4 8054 	str.w	r8, [r4, #84]	; 0x54
 80047a2:	e7ef      	b.n	8004784 <xTaskGenericNotifyFromISR+0x68>
 80047a4:	6aa3      	ldr	r3, [r4, #40]	; 0x28
 80047a6:	b143      	cbz	r3, 80047ba <xTaskGenericNotifyFromISR+0x9e>
 80047a8:	f04f 0350 	mov.w	r3, #80	; 0x50
 80047ac:	f383 8811 	msr	BASEPRI, r3
 80047b0:	f3bf 8f6f 	isb	sy
 80047b4:	f3bf 8f4f 	dsb	sy
 80047b8:	e7fe      	b.n	80047b8 <xTaskGenericNotifyFromISR+0x9c>
 80047ba:	4b13      	ldr	r3, [pc, #76]	; (8004808 <xTaskGenericNotifyFromISR+0xec>)
 80047bc:	681b      	ldr	r3, [r3, #0]
 80047be:	b9d3      	cbnz	r3, 80047f6 <xTaskGenericNotifyFromISR+0xda>
 80047c0:	1d25      	adds	r5, r4, #4
 80047c2:	4628      	mov	r0, r5
 80047c4:	f7fe ff5b 	bl	800367e <uxListRemove>
 80047c8:	4a10      	ldr	r2, [pc, #64]	; (800480c <xTaskGenericNotifyFromISR+0xf0>)
 80047ca:	2014      	movs	r0, #20
 80047cc:	6811      	ldr	r1, [r2, #0]
 80047ce:	6ae3      	ldr	r3, [r4, #44]	; 0x2c
 80047d0:	428b      	cmp	r3, r1
 80047d2:	4629      	mov	r1, r5
 80047d4:	bf88      	it	hi
 80047d6:	6013      	strhi	r3, [r2, #0]
 80047d8:	4a0d      	ldr	r2, [pc, #52]	; (8004810 <xTaskGenericNotifyFromISR+0xf4>)
 80047da:	fb00 2003 	mla	r0, r0, r3, r2
 80047de:	f7fe ff2b 	bl	8003638 <vListInsertEnd>
 80047e2:	4b0c      	ldr	r3, [pc, #48]	; (8004814 <xTaskGenericNotifyFromISR+0xf8>)
 80047e4:	6ae2      	ldr	r2, [r4, #44]	; 0x2c
 80047e6:	681b      	ldr	r3, [r3, #0]
 80047e8:	6adb      	ldr	r3, [r3, #44]	; 0x2c
 80047ea:	429a      	cmp	r2, r3
 80047ec:	d9cc      	bls.n	8004788 <xTaskGenericNotifyFromISR+0x6c>
 80047ee:	2001      	movs	r0, #1
 80047f0:	b12f      	cbz	r7, 80047fe <xTaskGenericNotifyFromISR+0xe2>
 80047f2:	6038      	str	r0, [r7, #0]
 80047f4:	e7c9      	b.n	800478a <xTaskGenericNotifyFromISR+0x6e>
 80047f6:	f104 0118 	add.w	r1, r4, #24
 80047fa:	4807      	ldr	r0, [pc, #28]	; (8004818 <xTaskGenericNotifyFromISR+0xfc>)
 80047fc:	e7ef      	b.n	80047de <xTaskGenericNotifyFromISR+0xc2>
 80047fe:	4b07      	ldr	r3, [pc, #28]	; (800481c <xTaskGenericNotifyFromISR+0x100>)
 8004800:	6018      	str	r0, [r3, #0]
 8004802:	e7c2      	b.n	800478a <xTaskGenericNotifyFromISR+0x6e>
 8004804:	2000      	movs	r0, #0
 8004806:	e7c0      	b.n	800478a <xTaskGenericNotifyFromISR+0x6e>
 8004808:	20000d6c 	.word	0x20000d6c
 800480c:	20000d74 	.word	0x20000d74
 8004810:	20000900 	.word	0x20000900
 8004814:	200008f4 	.word	0x200008f4
 8004818:	20000da8 	.word	0x20000da8
 800481c:	20000dec 	.word	0x20000dec

08004820 <prvCheckForValidListAndQueue>:
 8004820:	b5f7      	push	{r0, r1, r2, r4, r5, r6, r7, lr}
 8004822:	4c11      	ldr	r4, [pc, #68]	; (8004868 <prvCheckForValidListAndQueue+0x48>)
 8004824:	f000 fa26 	bl	8004c74 <vPortEnterCritical>
 8004828:	6825      	ldr	r5, [r4, #0]
 800482a:	b9bd      	cbnz	r5, 800485c <prvCheckForValidListAndQueue+0x3c>
 800482c:	4f0f      	ldr	r7, [pc, #60]	; (800486c <prvCheckForValidListAndQueue+0x4c>)
 800482e:	4e10      	ldr	r6, [pc, #64]	; (8004870 <prvCheckForValidListAndQueue+0x50>)
 8004830:	4638      	mov	r0, r7
 8004832:	f7fe fef3 	bl	800361c <vListInitialise>
 8004836:	4630      	mov	r0, r6
 8004838:	f7fe fef0 	bl	800361c <vListInitialise>
 800483c:	4b0d      	ldr	r3, [pc, #52]	; (8004874 <prvCheckForValidListAndQueue+0x54>)
 800483e:	4a0e      	ldr	r2, [pc, #56]	; (8004878 <prvCheckForValidListAndQueue+0x58>)
 8004840:	601f      	str	r7, [r3, #0]
 8004842:	4b0e      	ldr	r3, [pc, #56]	; (800487c <prvCheckForValidListAndQueue+0x5c>)
 8004844:	2110      	movs	r1, #16
 8004846:	601e      	str	r6, [r3, #0]
 8004848:	200a      	movs	r0, #10
 800484a:	9500      	str	r5, [sp, #0]
 800484c:	4b0c      	ldr	r3, [pc, #48]	; (8004880 <prvCheckForValidListAndQueue+0x60>)
 800484e:	f7fe fff1 	bl	8003834 <xQueueGenericCreateStatic>
 8004852:	6020      	str	r0, [r4, #0]
 8004854:	b110      	cbz	r0, 800485c <prvCheckForValidListAndQueue+0x3c>
 8004856:	490b      	ldr	r1, [pc, #44]	; (8004884 <prvCheckForValidListAndQueue+0x64>)
 8004858:	f7ff f9ee 	bl	8003c38 <vQueueAddToRegistry>
 800485c:	b003      	add	sp, #12
 800485e:	e8bd 40f0 	ldmia.w	sp!, {r4, r5, r6, r7, lr}
 8004862:	f000 ba29 	b.w	8004cb8 <vPortExitCritical>
 8004866:	bf00      	nop
 8004868:	20000f14 	.word	0x20000f14
 800486c:	20000e98 	.word	0x20000e98
 8004870:	20000eac 	.word	0x20000eac
 8004874:	20000df0 	.word	0x20000df0
 8004878:	20000df8 	.word	0x20000df8
 800487c:	20000df4 	.word	0x20000df4
 8004880:	20000ec4 	.word	0x20000ec4
 8004884:	0800551d 	.word	0x0800551d

08004888 <prvInsertTimerInActiveList>:
 8004888:	4291      	cmp	r1, r2
 800488a:	b508      	push	{r3, lr}
 800488c:	6041      	str	r1, [r0, #4]
 800488e:	6100      	str	r0, [r0, #16]
 8004890:	d80a      	bhi.n	80048a8 <prvInsertTimerInActiveList+0x20>
 8004892:	1ad2      	subs	r2, r2, r3
 8004894:	6983      	ldr	r3, [r0, #24]
 8004896:	429a      	cmp	r2, r3
 8004898:	d20d      	bcs.n	80048b6 <prvInsertTimerInActiveList+0x2e>
 800489a:	4b08      	ldr	r3, [pc, #32]	; (80048bc <prvInsertTimerInActiveList+0x34>)
 800489c:	1d01      	adds	r1, r0, #4
 800489e:	6818      	ldr	r0, [r3, #0]
 80048a0:	f7fe fed6 	bl	8003650 <vListInsert>
 80048a4:	2000      	movs	r0, #0
 80048a6:	bd08      	pop	{r3, pc}
 80048a8:	429a      	cmp	r2, r3
 80048aa:	d201      	bcs.n	80048b0 <prvInsertTimerInActiveList+0x28>
 80048ac:	4299      	cmp	r1, r3
 80048ae:	d202      	bcs.n	80048b6 <prvInsertTimerInActiveList+0x2e>
 80048b0:	1d01      	adds	r1, r0, #4
 80048b2:	4b03      	ldr	r3, [pc, #12]	; (80048c0 <prvInsertTimerInActiveList+0x38>)
 80048b4:	e7f3      	b.n	800489e <prvInsertTimerInActiveList+0x16>
 80048b6:	2001      	movs	r0, #1
 80048b8:	e7f5      	b.n	80048a6 <prvInsertTimerInActiveList+0x1e>
 80048ba:	bf00      	nop
 80048bc:	20000df4 	.word	0x20000df4
 80048c0:	20000df0 	.word	0x20000df0

080048c4 <xTimerCreateTimerTask>:
 80048c4:	b510      	push	{r4, lr}
 80048c6:	b088      	sub	sp, #32
 80048c8:	f7ff ffaa 	bl	8004820 <prvCheckForValidListAndQueue>
 80048cc:	4b12      	ldr	r3, [pc, #72]	; (8004918 <xTimerCreateTimerTask+0x54>)
 80048ce:	681b      	ldr	r3, [r3, #0]
 80048d0:	b1b3      	cbz	r3, 8004900 <xTimerCreateTimerTask+0x3c>
 80048d2:	2400      	movs	r4, #0
 80048d4:	aa07      	add	r2, sp, #28
 80048d6:	a906      	add	r1, sp, #24
 80048d8:	a805      	add	r0, sp, #20
 80048da:	e9cd 4405 	strd	r4, r4, [sp, #20]
 80048de:	f7fe fe91 	bl	8003604 <vApplicationGetTimerTaskMemory>
 80048e2:	9b05      	ldr	r3, [sp, #20]
 80048e4:	9a07      	ldr	r2, [sp, #28]
 80048e6:	9302      	str	r3, [sp, #8]
 80048e8:	9b06      	ldr	r3, [sp, #24]
 80048ea:	490c      	ldr	r1, [pc, #48]	; (800491c <xTimerCreateTimerTask+0x58>)
 80048ec:	9301      	str	r3, [sp, #4]
 80048ee:	2302      	movs	r3, #2
 80048f0:	480b      	ldr	r0, [pc, #44]	; (8004920 <xTimerCreateTimerTask+0x5c>)
 80048f2:	9300      	str	r3, [sp, #0]
 80048f4:	4623      	mov	r3, r4
 80048f6:	f7ff fb33 	bl	8003f60 <xTaskCreateStatic>
 80048fa:	4b0a      	ldr	r3, [pc, #40]	; (8004924 <xTimerCreateTimerTask+0x60>)
 80048fc:	6018      	str	r0, [r3, #0]
 80048fe:	b940      	cbnz	r0, 8004912 <xTimerCreateTimerTask+0x4e>
 8004900:	f04f 0350 	mov.w	r3, #80	; 0x50
 8004904:	f383 8811 	msr	BASEPRI, r3
 8004908:	f3bf 8f6f 	isb	sy
 800490c:	f3bf 8f4f 	dsb	sy
 8004910:	e7fe      	b.n	8004910 <xTimerCreateTimerTask+0x4c>
 8004912:	2001      	movs	r0, #1
 8004914:	b008      	add	sp, #32
 8004916:	bd10      	pop	{r4, pc}
 8004918:	20000f14 	.word	0x20000f14
 800491c:	08005522 	.word	0x08005522
 8004920:	080049fd 	.word	0x080049fd
 8004924:	20000f18 	.word	0x20000f18

08004928 <xTimerGenericCommand>:
 8004928:	b530      	push	{r4, r5, lr}
 800492a:	4615      	mov	r5, r2
 800492c:	b085      	sub	sp, #20
 800492e:	461a      	mov	r2, r3
 8004930:	4603      	mov	r3, r0
 8004932:	b940      	cbnz	r0, 8004946 <xTimerGenericCommand+0x1e>
 8004934:	f04f 0350 	mov.w	r3, #80	; 0x50
 8004938:	f383 8811 	msr	BASEPRI, r3
 800493c:	f3bf 8f6f 	isb	sy
 8004940:	f3bf 8f4f 	dsb	sy
 8004944:	e7fe      	b.n	8004944 <xTimerGenericCommand+0x1c>
 8004946:	4c0d      	ldr	r4, [pc, #52]	; (800497c <xTimerGenericCommand+0x54>)
 8004948:	6820      	ldr	r0, [r4, #0]
 800494a:	b178      	cbz	r0, 800496c <xTimerGenericCommand+0x44>
 800494c:	2905      	cmp	r1, #5
 800494e:	e9cd 1500 	strd	r1, r5, [sp]
 8004952:	9302      	str	r3, [sp, #8]
 8004954:	dc0c      	bgt.n	8004970 <xTimerGenericCommand+0x48>
 8004956:	f7ff fde5 	bl	8004524 <xTaskGetSchedulerState>
 800495a:	2300      	movs	r3, #0
 800495c:	2802      	cmp	r0, #2
 800495e:	bf0c      	ite	eq
 8004960:	9a08      	ldreq	r2, [sp, #32]
 8004962:	461a      	movne	r2, r3
 8004964:	4669      	mov	r1, sp
 8004966:	6820      	ldr	r0, [r4, #0]
 8004968:	f7fe ffb2 	bl	80038d0 <xQueueGenericSend>
 800496c:	b005      	add	sp, #20
 800496e:	bd30      	pop	{r4, r5, pc}
 8004970:	2300      	movs	r3, #0
 8004972:	4669      	mov	r1, sp
 8004974:	f7ff f85e 	bl	8003a34 <xQueueGenericSendFromISR>
 8004978:	e7f8      	b.n	800496c <xTimerGenericCommand+0x44>
 800497a:	bf00      	nop
 800497c:	20000f14 	.word	0x20000f14

08004980 <prvSwitchTimerLists>:
 8004980:	e92d 41f3 	stmdb	sp!, {r0, r1, r4, r5, r6, r7, r8, lr}
 8004984:	f04f 0800 	mov.w	r8, #0
 8004988:	4d1a      	ldr	r5, [pc, #104]	; (80049f4 <prvSwitchTimerLists+0x74>)
 800498a:	682b      	ldr	r3, [r5, #0]
 800498c:	681a      	ldr	r2, [r3, #0]
 800498e:	b932      	cbnz	r2, 800499e <prvSwitchTimerLists+0x1e>
 8004990:	4a19      	ldr	r2, [pc, #100]	; (80049f8 <prvSwitchTimerLists+0x78>)
 8004992:	6811      	ldr	r1, [r2, #0]
 8004994:	6013      	str	r3, [r2, #0]
 8004996:	6029      	str	r1, [r5, #0]
 8004998:	b002      	add	sp, #8
 800499a:	e8bd 81f0 	ldmia.w	sp!, {r4, r5, r6, r7, r8, pc}
 800499e:	68db      	ldr	r3, [r3, #12]
 80049a0:	68dc      	ldr	r4, [r3, #12]
 80049a2:	681e      	ldr	r6, [r3, #0]
 80049a4:	1d27      	adds	r7, r4, #4
 80049a6:	4638      	mov	r0, r7
 80049a8:	f7fe fe69 	bl	800367e <uxListRemove>
 80049ac:	6a63      	ldr	r3, [r4, #36]	; 0x24
 80049ae:	4620      	mov	r0, r4
 80049b0:	4798      	blx	r3
 80049b2:	69e3      	ldr	r3, [r4, #28]
 80049b4:	2b01      	cmp	r3, #1
 80049b6:	d1e8      	bne.n	800498a <prvSwitchTimerLists+0xa>
 80049b8:	69a3      	ldr	r3, [r4, #24]
 80049ba:	4433      	add	r3, r6
 80049bc:	429e      	cmp	r6, r3
 80049be:	d206      	bcs.n	80049ce <prvSwitchTimerLists+0x4e>
 80049c0:	6063      	str	r3, [r4, #4]
 80049c2:	6124      	str	r4, [r4, #16]
 80049c4:	4639      	mov	r1, r7
 80049c6:	6828      	ldr	r0, [r5, #0]
 80049c8:	f7fe fe42 	bl	8003650 <vListInsert>
 80049cc:	e7dd      	b.n	800498a <prvSwitchTimerLists+0xa>
 80049ce:	2300      	movs	r3, #0
 80049d0:	f8cd 8000 	str.w	r8, [sp]
 80049d4:	4632      	mov	r2, r6
 80049d6:	4619      	mov	r1, r3
 80049d8:	4620      	mov	r0, r4
 80049da:	f7ff ffa5 	bl	8004928 <xTimerGenericCommand>
 80049de:	2800      	cmp	r0, #0
 80049e0:	d1d3      	bne.n	800498a <prvSwitchTimerLists+0xa>
 80049e2:	f04f 0350 	mov.w	r3, #80	; 0x50
 80049e6:	f383 8811 	msr	BASEPRI, r3
 80049ea:	f3bf 8f6f 	isb	sy
 80049ee:	f3bf 8f4f 	dsb	sy
 80049f2:	e7fe      	b.n	80049f2 <prvSwitchTimerLists+0x72>
 80049f4:	20000df0 	.word	0x20000df0
 80049f8:	20000df4 	.word	0x20000df4

080049fc <prvTimerTask>:
 80049fc:	e92d 4ff0 	stmdb	sp!, {r4, r5, r6, r7, r8, r9, sl, fp, lr}
 8004a00:	4d6d      	ldr	r5, [pc, #436]	; (8004bb8 <prvTimerTask+0x1bc>)
 8004a02:	f8df 81c4 	ldr.w	r8, [pc, #452]	; 8004bc8 <prvTimerTask+0x1cc>
 8004a06:	462f      	mov	r7, r5
 8004a08:	b087      	sub	sp, #28
 8004a0a:	682b      	ldr	r3, [r5, #0]
 8004a0c:	f8d3 b000 	ldr.w	fp, [r3]
 8004a10:	f1bb 0f00 	cmp.w	fp, #0
 8004a14:	d04b      	beq.n	8004aae <prvTimerTask+0xb2>
 8004a16:	68db      	ldr	r3, [r3, #12]
 8004a18:	f8d3 a000 	ldr.w	sl, [r3]
 8004a1c:	f7ff fb48 	bl	80040b0 <vTaskSuspendAll>
 8004a20:	f7ff fb4e 	bl	80040c0 <xTaskGetTickCount>
 8004a24:	4c65      	ldr	r4, [pc, #404]	; (8004bbc <prvTimerTask+0x1c0>)
 8004a26:	4681      	mov	r9, r0
 8004a28:	6823      	ldr	r3, [r4, #0]
 8004a2a:	4626      	mov	r6, r4
 8004a2c:	4298      	cmp	r0, r3
 8004a2e:	d240      	bcs.n	8004ab2 <prvTimerTask+0xb6>
 8004a30:	f7ff ffa6 	bl	8004980 <prvSwitchTimerLists>
 8004a34:	f8c4 9000 	str.w	r9, [r4]
 8004a38:	f7ff fbd8 	bl	80041ec <xTaskResumeAll>
 8004a3c:	f8df 9184 	ldr.w	r9, [pc, #388]	; 8004bc4 <prvTimerTask+0x1c8>
 8004a40:	2200      	movs	r2, #0
 8004a42:	a902      	add	r1, sp, #8
 8004a44:	f8d9 0000 	ldr.w	r0, [r9]
 8004a48:	f7ff f856 	bl	8003af8 <xQueueReceive>
 8004a4c:	2800      	cmp	r0, #0
 8004a4e:	d0dc      	beq.n	8004a0a <prvTimerTask+0xe>
 8004a50:	9b02      	ldr	r3, [sp, #8]
 8004a52:	2b00      	cmp	r3, #0
 8004a54:	da03      	bge.n	8004a5e <prvTimerTask+0x62>
 8004a56:	e9dd 0104 	ldrd	r0, r1, [sp, #16]
 8004a5a:	9b03      	ldr	r3, [sp, #12]
 8004a5c:	4798      	blx	r3
 8004a5e:	9b02      	ldr	r3, [sp, #8]
 8004a60:	2b00      	cmp	r3, #0
 8004a62:	dbed      	blt.n	8004a40 <prvTimerTask+0x44>
 8004a64:	9c04      	ldr	r4, [sp, #16]
 8004a66:	6963      	ldr	r3, [r4, #20]
 8004a68:	b113      	cbz	r3, 8004a70 <prvTimerTask+0x74>
 8004a6a:	1d20      	adds	r0, r4, #4
 8004a6c:	f7fe fe07 	bl	800367e <uxListRemove>
 8004a70:	f7ff fb26 	bl	80040c0 <xTaskGetTickCount>
 8004a74:	6833      	ldr	r3, [r6, #0]
 8004a76:	4683      	mov	fp, r0
 8004a78:	4298      	cmp	r0, r3
 8004a7a:	d201      	bcs.n	8004a80 <prvTimerTask+0x84>
 8004a7c:	f7ff ff80 	bl	8004980 <prvSwitchTimerLists>
 8004a80:	9a02      	ldr	r2, [sp, #8]
 8004a82:	f8c6 b000 	str.w	fp, [r6]
 8004a86:	2a09      	cmp	r2, #9
 8004a88:	d8da      	bhi.n	8004a40 <prvTimerTask+0x44>
 8004a8a:	2301      	movs	r3, #1
 8004a8c:	4093      	lsls	r3, r2
 8004a8e:	f413 7a04 	ands.w	sl, r3, #528	; 0x210
 8004a92:	d17e      	bne.n	8004b92 <prvTimerTask+0x196>
 8004a94:	f013 0fc7 	tst.w	r3, #199	; 0xc7
 8004a98:	d154      	bne.n	8004b44 <prvTimerTask+0x148>
 8004a9a:	069b      	lsls	r3, r3, #26
 8004a9c:	d5d0      	bpl.n	8004a40 <prvTimerTask+0x44>
 8004a9e:	f894 302c 	ldrb.w	r3, [r4, #44]	; 0x2c
 8004aa2:	2b00      	cmp	r3, #0
 8004aa4:	d1cc      	bne.n	8004a40 <prvTimerTask+0x44>
 8004aa6:	4620      	mov	r0, r4
 8004aa8:	f000 faa4 	bl	8004ff4 <vPortFree>
 8004aac:	e7c8      	b.n	8004a40 <prvTimerTask+0x44>
 8004aae:	46da      	mov	sl, fp
 8004ab0:	e7b4      	b.n	8004a1c <prvTimerTask+0x20>
 8004ab2:	6020      	str	r0, [r4, #0]
 8004ab4:	f1bb 0f00 	cmp.w	fp, #0
 8004ab8:	d029      	beq.n	8004b0e <prvTimerTask+0x112>
 8004aba:	4582      	cmp	sl, r0
 8004abc:	d840      	bhi.n	8004b40 <prvTimerTask+0x144>
 8004abe:	f7ff fb95 	bl	80041ec <xTaskResumeAll>
 8004ac2:	683b      	ldr	r3, [r7, #0]
 8004ac4:	68db      	ldr	r3, [r3, #12]
 8004ac6:	68dc      	ldr	r4, [r3, #12]
 8004ac8:	1d20      	adds	r0, r4, #4
 8004aca:	f7fe fdd8 	bl	800367e <uxListRemove>
 8004ace:	69e3      	ldr	r3, [r4, #28]
 8004ad0:	2b01      	cmp	r3, #1
 8004ad2:	d118      	bne.n	8004b06 <prvTimerTask+0x10a>
 8004ad4:	69a1      	ldr	r1, [r4, #24]
 8004ad6:	4653      	mov	r3, sl
 8004ad8:	464a      	mov	r2, r9
 8004ada:	4451      	add	r1, sl
 8004adc:	4620      	mov	r0, r4
 8004ade:	f7ff fed3 	bl	8004888 <prvInsertTimerInActiveList>
 8004ae2:	b180      	cbz	r0, 8004b06 <prvTimerTask+0x10a>
 8004ae4:	2300      	movs	r3, #0
 8004ae6:	4652      	mov	r2, sl
 8004ae8:	9300      	str	r3, [sp, #0]
 8004aea:	4619      	mov	r1, r3
 8004aec:	4620      	mov	r0, r4
 8004aee:	f7ff ff1b 	bl	8004928 <xTimerGenericCommand>
 8004af2:	b940      	cbnz	r0, 8004b06 <prvTimerTask+0x10a>
 8004af4:	f04f 0350 	mov.w	r3, #80	; 0x50
 8004af8:	f383 8811 	msr	BASEPRI, r3
 8004afc:	f3bf 8f6f 	isb	sy
 8004b00:	f3bf 8f4f 	dsb	sy
 8004b04:	e7fe      	b.n	8004b04 <prvTimerTask+0x108>
 8004b06:	6a63      	ldr	r3, [r4, #36]	; 0x24
 8004b08:	4620      	mov	r0, r4
 8004b0a:	4798      	blx	r3
 8004b0c:	e796      	b.n	8004a3c <prvTimerTask+0x40>
 8004b0e:	4b2c      	ldr	r3, [pc, #176]	; (8004bc0 <prvTimerTask+0x1c4>)
 8004b10:	681b      	ldr	r3, [r3, #0]
 8004b12:	681a      	ldr	r2, [r3, #0]
 8004b14:	fab2 f282 	clz	r2, r2
 8004b18:	0952      	lsrs	r2, r2, #5
 8004b1a:	4b2a      	ldr	r3, [pc, #168]	; (8004bc4 <prvTimerTask+0x1c8>)
 8004b1c:	ebaa 0109 	sub.w	r1, sl, r9
 8004b20:	6818      	ldr	r0, [r3, #0]
 8004b22:	f7ff f89b 	bl	8003c5c <vQueueWaitForMessageRestricted>
 8004b26:	f7ff fb61 	bl	80041ec <xTaskResumeAll>
 8004b2a:	2800      	cmp	r0, #0
 8004b2c:	d186      	bne.n	8004a3c <prvTimerTask+0x40>
 8004b2e:	f04f 5380 	mov.w	r3, #268435456	; 0x10000000
 8004b32:	f8c8 3000 	str.w	r3, [r8]
 8004b36:	f3bf 8f4f 	dsb	sy
 8004b3a:	f3bf 8f6f 	isb	sy
 8004b3e:	e77d      	b.n	8004a3c <prvTimerTask+0x40>
 8004b40:	2200      	movs	r2, #0
 8004b42:	e7ea      	b.n	8004b1a <prvTimerTask+0x11e>
 8004b44:	69a1      	ldr	r1, [r4, #24]
 8004b46:	9b03      	ldr	r3, [sp, #12]
 8004b48:	465a      	mov	r2, fp
 8004b4a:	4419      	add	r1, r3
 8004b4c:	4620      	mov	r0, r4
 8004b4e:	f7ff fe9b 	bl	8004888 <prvInsertTimerInActiveList>
 8004b52:	2800      	cmp	r0, #0
 8004b54:	f43f af74 	beq.w	8004a40 <prvTimerTask+0x44>
 8004b58:	6a63      	ldr	r3, [r4, #36]	; 0x24
 8004b5a:	4620      	mov	r0, r4
 8004b5c:	4798      	blx	r3
 8004b5e:	69e3      	ldr	r3, [r4, #28]
 8004b60:	2b01      	cmp	r3, #1
 8004b62:	f47f af6d 	bne.w	8004a40 <prvTimerTask+0x44>
 8004b66:	69a2      	ldr	r2, [r4, #24]
 8004b68:	9903      	ldr	r1, [sp, #12]
 8004b6a:	f8cd a000 	str.w	sl, [sp]
 8004b6e:	440a      	add	r2, r1
 8004b70:	4653      	mov	r3, sl
 8004b72:	4651      	mov	r1, sl
 8004b74:	4620      	mov	r0, r4
 8004b76:	f7ff fed7 	bl	8004928 <xTimerGenericCommand>
 8004b7a:	2800      	cmp	r0, #0
 8004b7c:	f47f af60 	bne.w	8004a40 <prvTimerTask+0x44>
 8004b80:	f04f 0350 	mov.w	r3, #80	; 0x50
 8004b84:	f383 8811 	msr	BASEPRI, r3
 8004b88:	f3bf 8f6f 	isb	sy
 8004b8c:	f3bf 8f4f 	dsb	sy
 8004b90:	e7fe      	b.n	8004b90 <prvTimerTask+0x194>
 8004b92:	9903      	ldr	r1, [sp, #12]
 8004b94:	61a1      	str	r1, [r4, #24]
 8004b96:	b941      	cbnz	r1, 8004baa <prvTimerTask+0x1ae>
 8004b98:	f04f 0350 	mov.w	r3, #80	; 0x50
 8004b9c:	f383 8811 	msr	BASEPRI, r3
 8004ba0:	f3bf 8f6f 	isb	sy
 8004ba4:	f3bf 8f4f 	dsb	sy
 8004ba8:	e7fe      	b.n	8004ba8 <prvTimerTask+0x1ac>
 8004baa:	465b      	mov	r3, fp
 8004bac:	465a      	mov	r2, fp
 8004bae:	4459      	add	r1, fp
 8004bb0:	4620      	mov	r0, r4
 8004bb2:	f7ff fe69 	bl	8004888 <prvInsertTimerInActiveList>
 8004bb6:	e743      	b.n	8004a40 <prvTimerTask+0x44>
 8004bb8:	20000df0 	.word	0x20000df0
 8004bbc:	20000ec0 	.word	0x20000ec0
 8004bc0:	20000df4 	.word	0x20000df4
 8004bc4:	20000f14 	.word	0x20000f14
 8004bc8:	e000ed04 	.word	0xe000ed04

08004bcc <prvTaskExitError>:
 8004bcc:	2300      	movs	r3, #0
 8004bce:	b082      	sub	sp, #8
 8004bd0:	9301      	str	r3, [sp, #4]
 8004bd2:	4b0d      	ldr	r3, [pc, #52]	; (8004c08 <prvTaskExitError+0x3c>)
 8004bd4:	681b      	ldr	r3, [r3, #0]
 8004bd6:	3301      	adds	r3, #1
 8004bd8:	d008      	beq.n	8004bec <prvTaskExitError+0x20>
 8004bda:	f04f 0350 	mov.w	r3, #80	; 0x50
 8004bde:	f383 8811 	msr	BASEPRI, r3
 8004be2:	f3bf 8f6f 	isb	sy
 8004be6:	f3bf 8f4f 	dsb	sy
 8004bea:	e7fe      	b.n	8004bea <prvTaskExitError+0x1e>
 8004bec:	f04f 0350 	mov.w	r3, #80	; 0x50
 8004bf0:	f383 8811 	msr	BASEPRI, r3
 8004bf4:	f3bf 8f6f 	isb	sy
 8004bf8:	f3bf 8f4f 	dsb	sy
 8004bfc:	9b01      	ldr	r3, [sp, #4]
 8004bfe:	2b00      	cmp	r3, #0
 8004c00:	d0fc      	beq.n	8004bfc <prvTaskExitError+0x30>
 8004c02:	b002      	add	sp, #8
 8004c04:	4770      	bx	lr
 8004c06:	bf00      	nop
 8004c08:	2000011c 	.word	0x2000011c

08004c0c <prvPortStartFirstTask>:
 8004c0c:	4806      	ldr	r0, [pc, #24]	; (8004c28 <prvPortStartFirstTask+0x1c>)
 8004c0e:	6800      	ldr	r0, [r0, #0]
 8004c10:	6800      	ldr	r0, [r0, #0]
 8004c12:	f380 8808 	msr	MSP, r0
 8004c16:	b662      	cpsie	i
 8004c18:	b661      	cpsie	f
 8004c1a:	f3bf 8f4f 	dsb	sy
 8004c1e:	f3bf 8f6f 	isb	sy
 8004c22:	df00      	svc	0
 8004c24:	bf00      	nop
 8004c26:	0000      	.short	0x0000
 8004c28:	e000ed08 	.word	0xe000ed08

08004c2c <pxPortInitialiseStack>:
 8004c2c:	f04f 7380 	mov.w	r3, #16777216	; 0x1000000
 8004c30:	f840 3c04 	str.w	r3, [r0, #-4]
 8004c34:	4b05      	ldr	r3, [pc, #20]	; (8004c4c <pxPortInitialiseStack+0x20>)
 8004c36:	f021 0101 	bic.w	r1, r1, #1
 8004c3a:	f840 1c08 	str.w	r1, [r0, #-8]
 8004c3e:	f840 3c0c 	str.w	r3, [r0, #-12]
 8004c42:	f840 2c20 	str.w	r2, [r0, #-32]
 8004c46:	3840      	subs	r0, #64	; 0x40
 8004c48:	4770      	bx	lr
 8004c4a:	bf00      	nop
 8004c4c:	08004bcd 	.word	0x08004bcd

08004c50 <SVC_Handler>:
 8004c50:	4b07      	ldr	r3, [pc, #28]	; (8004c70 <pxCurrentTCBConst2>)
 8004c52:	6819      	ldr	r1, [r3, #0]
 8004c54:	6808      	ldr	r0, [r1, #0]
 8004c56:	e8b0 0ff0 	ldmia.w	r0!, {r4, r5, r6, r7, r8, r9, sl, fp}
 8004c5a:	f380 8809 	msr	PSP, r0
 8004c5e:	f3bf 8f6f 	isb	sy
 8004c62:	f04f 0000 	mov.w	r0, #0
 8004c66:	f380 8811 	msr	BASEPRI, r0
 8004c6a:	f04e 0e0d 	orr.w	lr, lr, #13
 8004c6e:	4770      	bx	lr

08004c70 <pxCurrentTCBConst2>:
 8004c70:	200008f4 	.word	0x200008f4

08004c74 <vPortEnterCritical>:
 8004c74:	f04f 0350 	mov.w	r3, #80	; 0x50
 8004c78:	f383 8811 	msr	BASEPRI, r3
 8004c7c:	f3bf 8f6f 	isb	sy
 8004c80:	f3bf 8f4f 	dsb	sy
 8004c84:	4a0a      	ldr	r2, [pc, #40]	; (8004cb0 <vPortEnterCritical+0x3c>)
 8004c86:	6813      	ldr	r3, [r2, #0]
 8004c88:	3301      	adds	r3, #1
 8004c8a:	2b01      	cmp	r3, #1
 8004c8c:	6013      	str	r3, [r2, #0]
 8004c8e:	d10d      	bne.n	8004cac <vPortEnterCritical+0x38>
 8004c90:	4b08      	ldr	r3, [pc, #32]	; (8004cb4 <vPortEnterCritical+0x40>)
 8004c92:	681b      	ldr	r3, [r3, #0]
 8004c94:	f013 0fff 	tst.w	r3, #255	; 0xff
 8004c98:	d008      	beq.n	8004cac <vPortEnterCritical+0x38>
 8004c9a:	f04f 0350 	mov.w	r3, #80	; 0x50
 8004c9e:	f383 8811 	msr	BASEPRI, r3
 8004ca2:	f3bf 8f6f 	isb	sy
 8004ca6:	f3bf 8f4f 	dsb	sy
 8004caa:	e7fe      	b.n	8004caa <vPortEnterCritical+0x36>
 8004cac:	4770      	bx	lr
 8004cae:	bf00      	nop
 8004cb0:	2000011c 	.word	0x2000011c
 8004cb4:	e000ed04 	.word	0xe000ed04

08004cb8 <vPortExitCritical>:
 8004cb8:	4a08      	ldr	r2, [pc, #32]	; (8004cdc <vPortExitCritical+0x24>)
 8004cba:	6813      	ldr	r3, [r2, #0]
 8004cbc:	b943      	cbnz	r3, 8004cd0 <vPortExitCritical+0x18>
 8004cbe:	f04f 0350 	mov.w	r3, #80	; 0x50
 8004cc2:	f383 8811 	msr	BASEPRI, r3
 8004cc6:	f3bf 8f6f 	isb	sy
 8004cca:	f3bf 8f4f 	dsb	sy
 8004cce:	e7fe      	b.n	8004cce <vPortExitCritical+0x16>
 8004cd0:	3b01      	subs	r3, #1
 8004cd2:	6013      	str	r3, [r2, #0]
 8004cd4:	b90b      	cbnz	r3, 8004cda <vPortExitCritical+0x22>
 8004cd6:	f383 8811 	msr	BASEPRI, r3
 8004cda:	4770      	bx	lr
 8004cdc:	2000011c 	.word	0x2000011c

08004ce0 <PendSV_Handler>:
 8004ce0:	f3ef 8009 	mrs	r0, PSP
 8004ce4:	f3bf 8f6f 	isb	sy
 8004ce8:	4b0d      	ldr	r3, [pc, #52]	; (8004d20 <pxCurrentTCBConst>)
 8004cea:	681a      	ldr	r2, [r3, #0]
 8004cec:	e920 0ff0 	stmdb	r0!, {r4, r5, r6, r7, r8, r9, sl, fp}
 8004cf0:	6010      	str	r0, [r2, #0]
 8004cf2:	e92d 4008 	stmdb	sp!, {r3, lr}
 8004cf6:	f04f 0050 	mov.w	r0, #80	; 0x50
 8004cfa:	f380 8811 	msr	BASEPRI, r0
 8004cfe:	f7ff fb0d 	bl	800431c <vTaskSwitchContext>
 8004d02:	f04f 0000 	mov.w	r0, #0
 8004d06:	f380 8811 	msr	BASEPRI, r0
 8004d0a:	e8bd 4008 	ldmia.w	sp!, {r3, lr}
 8004d0e:	6819      	ldr	r1, [r3, #0]
 8004d10:	6808      	ldr	r0, [r1, #0]
 8004d12:	e8b0 0ff0 	ldmia.w	r0!, {r4, r5, r6, r7, r8, r9, sl, fp}
 8004d16:	f380 8809 	msr	PSP, r0
 8004d1a:	f3bf 8f6f 	isb	sy
 8004d1e:	4770      	bx	lr

08004d20 <pxCurrentTCBConst>:
 8004d20:	200008f4 	.word	0x200008f4

08004d24 <SysTick_Handler>:
 8004d24:	b508      	push	{r3, lr}
 8004d26:	f04f 0350 	mov.w	r3, #80	; 0x50
 8004d2a:	f383 8811 	msr	BASEPRI, r3
 8004d2e:	f3bf 8f6f 	isb	sy
 8004d32:	f3bf 8f4f 	dsb	sy
 8004d36:	f7ff f9c9 	bl	80040cc <xTaskIncrementTick>
 8004d3a:	b118      	cbz	r0, 8004d44 <SysTick_Handler+0x20>
 8004d3c:	f04f 5280 	mov.w	r2, #268435456	; 0x10000000
 8004d40:	4b02      	ldr	r3, [pc, #8]	; (8004d4c <SysTick_Handler+0x28>)
 8004d42:	601a      	str	r2, [r3, #0]
 8004d44:	2300      	movs	r3, #0
 8004d46:	f383 8811 	msr	BASEPRI, r3
 8004d4a:	bd08      	pop	{r3, pc}
 8004d4c:	e000ed04 	.word	0xe000ed04

08004d50 <vPortSetupTimerInterrupt>:
 8004d50:	2300      	movs	r3, #0
 8004d52:	4a08      	ldr	r2, [pc, #32]	; (8004d74 <vPortSetupTimerInterrupt+0x24>)
 8004d54:	4908      	ldr	r1, [pc, #32]	; (8004d78 <vPortSetupTimerInterrupt+0x28>)
 8004d56:	6013      	str	r3, [r2, #0]
 8004d58:	600b      	str	r3, [r1, #0]
 8004d5a:	f44f 717a 	mov.w	r1, #1000	; 0x3e8
 8004d5e:	4b07      	ldr	r3, [pc, #28]	; (8004d7c <vPortSetupTimerInterrupt+0x2c>)
 8004d60:	681b      	ldr	r3, [r3, #0]
 8004d62:	fbb3 f3f1 	udiv	r3, r3, r1
 8004d66:	4906      	ldr	r1, [pc, #24]	; (8004d80 <vPortSetupTimerInterrupt+0x30>)
 8004d68:	3b01      	subs	r3, #1
 8004d6a:	600b      	str	r3, [r1, #0]
 8004d6c:	2307      	movs	r3, #7
 8004d6e:	6013      	str	r3, [r2, #0]
 8004d70:	4770      	bx	lr
 8004d72:	bf00      	nop
 8004d74:	e000e010 	.word	0xe000e010
 8004d78:	e000e018 	.word	0xe000e018
 8004d7c:	20000000 	.word	0x20000000
 8004d80:	e000e014 	.word	0xe000e014

08004d84 <xPortStartScheduler>:
 8004d84:	b513      	push	{r0, r1, r4, lr}
 8004d86:	4b27      	ldr	r3, [pc, #156]	; (8004e24 <xPortStartScheduler+0xa0>)
 8004d88:	2100      	movs	r1, #0
 8004d8a:	781a      	ldrb	r2, [r3, #0]
 8004d8c:	b2d2      	uxtb	r2, r2
 8004d8e:	9201      	str	r2, [sp, #4]
 8004d90:	22ff      	movs	r2, #255	; 0xff
 8004d92:	701a      	strb	r2, [r3, #0]
 8004d94:	781b      	ldrb	r3, [r3, #0]
 8004d96:	4a24      	ldr	r2, [pc, #144]	; (8004e28 <xPortStartScheduler+0xa4>)
 8004d98:	b2db      	uxtb	r3, r3
 8004d9a:	f88d 3003 	strb.w	r3, [sp, #3]
 8004d9e:	f89d 3003 	ldrb.w	r3, [sp, #3]
 8004da2:	f003 0350 	and.w	r3, r3, #80	; 0x50
 8004da6:	7013      	strb	r3, [r2, #0]
 8004da8:	2207      	movs	r2, #7
 8004daa:	4b20      	ldr	r3, [pc, #128]	; (8004e2c <xPortStartScheduler+0xa8>)
 8004dac:	601a      	str	r2, [r3, #0]
 8004dae:	f89d 0003 	ldrb.w	r0, [sp, #3]
 8004db2:	1e54      	subs	r4, r2, #1
 8004db4:	0600      	lsls	r0, r0, #24
 8004db6:	d40d      	bmi.n	8004dd4 <xPortStartScheduler+0x50>
 8004db8:	b101      	cbz	r1, 8004dbc <xPortStartScheduler+0x38>
 8004dba:	601a      	str	r2, [r3, #0]
 8004dbc:	681a      	ldr	r2, [r3, #0]
 8004dbe:	2a03      	cmp	r2, #3
 8004dc0:	d011      	beq.n	8004de6 <xPortStartScheduler+0x62>
 8004dc2:	f04f 0350 	mov.w	r3, #80	; 0x50
 8004dc6:	f383 8811 	msr	BASEPRI, r3
 8004dca:	f3bf 8f6f 	isb	sy
 8004dce:	f3bf 8f4f 	dsb	sy
 8004dd2:	e7fe      	b.n	8004dd2 <xPortStartScheduler+0x4e>
 8004dd4:	f89d 2003 	ldrb.w	r2, [sp, #3]
 8004dd8:	2101      	movs	r1, #1
 8004dda:	0052      	lsls	r2, r2, #1
 8004ddc:	b2d2      	uxtb	r2, r2
 8004dde:	f88d 2003 	strb.w	r2, [sp, #3]
 8004de2:	4622      	mov	r2, r4
 8004de4:	e7e3      	b.n	8004dae <xPortStartScheduler+0x2a>
 8004de6:	2400      	movs	r4, #0
 8004de8:	0212      	lsls	r2, r2, #8
 8004dea:	f402 62e0 	and.w	r2, r2, #1792	; 0x700
 8004dee:	601a      	str	r2, [r3, #0]
 8004df0:	9b01      	ldr	r3, [sp, #4]
 8004df2:	4a0c      	ldr	r2, [pc, #48]	; (8004e24 <xPortStartScheduler+0xa0>)
 8004df4:	b2db      	uxtb	r3, r3
 8004df6:	7013      	strb	r3, [r2, #0]
 8004df8:	4b0d      	ldr	r3, [pc, #52]	; (8004e30 <xPortStartScheduler+0xac>)
 8004dfa:	681a      	ldr	r2, [r3, #0]
 8004dfc:	f442 0270 	orr.w	r2, r2, #15728640	; 0xf00000
 8004e00:	601a      	str	r2, [r3, #0]
 8004e02:	681a      	ldr	r2, [r3, #0]
 8004e04:	f042 4270 	orr.w	r2, r2, #4026531840	; 0xf0000000
 8004e08:	601a      	str	r2, [r3, #0]
 8004e0a:	f7ff ffa1 	bl	8004d50 <vPortSetupTimerInterrupt>
 8004e0e:	4b09      	ldr	r3, [pc, #36]	; (8004e34 <xPortStartScheduler+0xb0>)
 8004e10:	601c      	str	r4, [r3, #0]
 8004e12:	f7ff fefb 	bl	8004c0c <prvPortStartFirstTask>
 8004e16:	f7ff fa81 	bl	800431c <vTaskSwitchContext>
 8004e1a:	f7ff fed7 	bl	8004bcc <prvTaskExitError>
 8004e1e:	4620      	mov	r0, r4
 8004e20:	b002      	add	sp, #8
 8004e22:	bd10      	pop	{r4, pc}
 8004e24:	e000e400 	.word	0xe000e400
 8004e28:	20000f1c 	.word	0x20000f1c
 8004e2c:	20000f20 	.word	0x20000f20
 8004e30:	e000ed20 	.word	0xe000ed20
 8004e34:	2000011c 	.word	0x2000011c

08004e38 <vPortValidateInterruptPriority>:
 8004e38:	f3ef 8305 	mrs	r3, IPSR
 8004e3c:	2b0f      	cmp	r3, #15
 8004e3e:	d90e      	bls.n	8004e5e <vPortValidateInterruptPriority+0x26>
 8004e40:	4a10      	ldr	r2, [pc, #64]	; (8004e84 <vPortValidateInterruptPriority+0x4c>)
 8004e42:	5c9b      	ldrb	r3, [r3, r2]
 8004e44:	4a10      	ldr	r2, [pc, #64]	; (8004e88 <vPortValidateInterruptPriority+0x50>)
 8004e46:	7812      	ldrb	r2, [r2, #0]
 8004e48:	429a      	cmp	r2, r3
 8004e4a:	d908      	bls.n	8004e5e <vPortValidateInterruptPriority+0x26>
 8004e4c:	f04f 0350 	mov.w	r3, #80	; 0x50
 8004e50:	f383 8811 	msr	BASEPRI, r3
 8004e54:	f3bf 8f6f 	isb	sy
 8004e58:	f3bf 8f4f 	dsb	sy
 8004e5c:	e7fe      	b.n	8004e5c <vPortValidateInterruptPriority+0x24>
 8004e5e:	4b0b      	ldr	r3, [pc, #44]	; (8004e8c <vPortValidateInterruptPriority+0x54>)
 8004e60:	4a0b      	ldr	r2, [pc, #44]	; (8004e90 <vPortValidateInterruptPriority+0x58>)
 8004e62:	681b      	ldr	r3, [r3, #0]
 8004e64:	6812      	ldr	r2, [r2, #0]
 8004e66:	f403 63e0 	and.w	r3, r3, #1792	; 0x700
 8004e6a:	4293      	cmp	r3, r2
 8004e6c:	d908      	bls.n	8004e80 <vPortValidateInterruptPriority+0x48>
 8004e6e:	f04f 0350 	mov.w	r3, #80	; 0x50
 8004e72:	f383 8811 	msr	BASEPRI, r3
 8004e76:	f3bf 8f6f 	isb	sy
 8004e7a:	f3bf 8f4f 	dsb	sy
 8004e7e:	e7fe      	b.n	8004e7e <vPortValidateInterruptPriority+0x46>
 8004e80:	4770      	bx	lr
 8004e82:	bf00      	nop
 8004e84:	e000e3f0 	.word	0xe000e3f0
 8004e88:	20000f1c 	.word	0x20000f1c
 8004e8c:	e000ed0c 	.word	0xe000ed0c
 8004e90:	20000f20 	.word	0x20000f20

08004e94 <prvInsertBlockIntoFreeList>:
 8004e94:	b510      	push	{r4, lr}
 8004e96:	4b0f      	ldr	r3, [pc, #60]	; (8004ed4 <prvInsertBlockIntoFreeList+0x40>)
 8004e98:	681a      	ldr	r2, [r3, #0]
 8004e9a:	4282      	cmp	r2, r0
 8004e9c:	d318      	bcc.n	8004ed0 <prvInsertBlockIntoFreeList+0x3c>
 8004e9e:	685c      	ldr	r4, [r3, #4]
 8004ea0:	1919      	adds	r1, r3, r4
 8004ea2:	4288      	cmp	r0, r1
 8004ea4:	bf01      	itttt	eq
 8004ea6:	6841      	ldreq	r1, [r0, #4]
 8004ea8:	4618      	moveq	r0, r3
 8004eaa:	1909      	addeq	r1, r1, r4
 8004eac:	6059      	streq	r1, [r3, #4]
 8004eae:	6844      	ldr	r4, [r0, #4]
 8004eb0:	1901      	adds	r1, r0, r4
 8004eb2:	428a      	cmp	r2, r1
 8004eb4:	d107      	bne.n	8004ec6 <prvInsertBlockIntoFreeList+0x32>
 8004eb6:	4908      	ldr	r1, [pc, #32]	; (8004ed8 <prvInsertBlockIntoFreeList+0x44>)
 8004eb8:	6809      	ldr	r1, [r1, #0]
 8004eba:	428a      	cmp	r2, r1
 8004ebc:	bf1f      	itttt	ne
 8004ebe:	6851      	ldrne	r1, [r2, #4]
 8004ec0:	6812      	ldrne	r2, [r2, #0]
 8004ec2:	1909      	addne	r1, r1, r4
 8004ec4:	6041      	strne	r1, [r0, #4]
 8004ec6:	4298      	cmp	r0, r3
 8004ec8:	6002      	str	r2, [r0, #0]
 8004eca:	bf18      	it	ne
 8004ecc:	6018      	strne	r0, [r3, #0]
 8004ece:	bd10      	pop	{r4, pc}
 8004ed0:	4613      	mov	r3, r2
 8004ed2:	e7e1      	b.n	8004e98 <prvInsertBlockIntoFreeList+0x4>
 8004ed4:	20001b34 	.word	0x20001b34
 8004ed8:	20000f24 	.word	0x20000f24

08004edc <pvPortMalloc>:
 8004edc:	e92d 41f0 	stmdb	sp!, {r4, r5, r6, r7, r8, lr}
 8004ee0:	4604      	mov	r4, r0
 8004ee2:	f7ff f8e5 	bl	80040b0 <vTaskSuspendAll>
 8004ee6:	493d      	ldr	r1, [pc, #244]	; (8004fdc <pvPortMalloc+0x100>)
 8004ee8:	4d3d      	ldr	r5, [pc, #244]	; (8004fe0 <pvPortMalloc+0x104>)
 8004eea:	680b      	ldr	r3, [r1, #0]
 8004eec:	b9fb      	cbnz	r3, 8004f2e <pvPortMalloc+0x52>
 8004eee:	4a3d      	ldr	r2, [pc, #244]	; (8004fe4 <pvPortMalloc+0x108>)
 8004ef0:	2000      	movs	r0, #0
 8004ef2:	0756      	lsls	r6, r2, #29
 8004ef4:	f502 6340 	add.w	r3, r2, #3072	; 0xc00
 8004ef8:	bf0f      	iteee	eq
 8004efa:	f44f 6340 	moveq.w	r3, #3072	; 0xc00
 8004efe:	3207      	addne	r2, #7
 8004f00:	f022 0207 	bicne.w	r2, r2, #7
 8004f04:	1a9b      	subne	r3, r3, r2
 8004f06:	4413      	add	r3, r2
 8004f08:	4e37      	ldr	r6, [pc, #220]	; (8004fe8 <pvPortMalloc+0x10c>)
 8004f0a:	3b08      	subs	r3, #8
 8004f0c:	f023 0307 	bic.w	r3, r3, #7
 8004f10:	6070      	str	r0, [r6, #4]
 8004f12:	6032      	str	r2, [r6, #0]
 8004f14:	e9c3 0000 	strd	r0, r0, [r3]
 8004f18:	1a98      	subs	r0, r3, r2
 8004f1a:	600b      	str	r3, [r1, #0]
 8004f1c:	e9c2 3000 	strd	r3, r0, [r2]
 8004f20:	4b32      	ldr	r3, [pc, #200]	; (8004fec <pvPortMalloc+0x110>)
 8004f22:	6018      	str	r0, [r3, #0]
 8004f24:	4b32      	ldr	r3, [pc, #200]	; (8004ff0 <pvPortMalloc+0x114>)
 8004f26:	6018      	str	r0, [r3, #0]
 8004f28:	f04f 4300 	mov.w	r3, #2147483648	; 0x80000000
 8004f2c:	602b      	str	r3, [r5, #0]
 8004f2e:	682f      	ldr	r7, [r5, #0]
 8004f30:	4227      	tst	r7, r4
 8004f32:	d14d      	bne.n	8004fd0 <pvPortMalloc+0xf4>
 8004f34:	2c00      	cmp	r4, #0
 8004f36:	d03e      	beq.n	8004fb6 <pvPortMalloc+0xda>
 8004f38:	f104 0308 	add.w	r3, r4, #8
 8004f3c:	0758      	lsls	r0, r3, #29
 8004f3e:	bf1c      	itt	ne
 8004f40:	f023 0307 	bicne.w	r3, r3, #7
 8004f44:	3308      	addne	r3, #8
 8004f46:	2b00      	cmp	r3, #0
 8004f48:	d042      	beq.n	8004fd0 <pvPortMalloc+0xf4>
 8004f4a:	4a29      	ldr	r2, [pc, #164]	; (8004ff0 <pvPortMalloc+0x114>)
 8004f4c:	6816      	ldr	r6, [r2, #0]
 8004f4e:	4690      	mov	r8, r2
 8004f50:	429e      	cmp	r6, r3
 8004f52:	d33d      	bcc.n	8004fd0 <pvPortMalloc+0xf4>
 8004f54:	4a24      	ldr	r2, [pc, #144]	; (8004fe8 <pvPortMalloc+0x10c>)
 8004f56:	6815      	ldr	r5, [r2, #0]
 8004f58:	6868      	ldr	r0, [r5, #4]
 8004f5a:	4298      	cmp	r0, r3
 8004f5c:	d201      	bcs.n	8004f62 <pvPortMalloc+0x86>
 8004f5e:	682c      	ldr	r4, [r5, #0]
 8004f60:	b9a4      	cbnz	r4, 8004f8c <pvPortMalloc+0xb0>
 8004f62:	6809      	ldr	r1, [r1, #0]
 8004f64:	42a9      	cmp	r1, r5
 8004f66:	d033      	beq.n	8004fd0 <pvPortMalloc+0xf4>
 8004f68:	6829      	ldr	r1, [r5, #0]
 8004f6a:	6814      	ldr	r4, [r2, #0]
 8004f6c:	6011      	str	r1, [r2, #0]
 8004f6e:	1ac2      	subs	r2, r0, r3
 8004f70:	2a10      	cmp	r2, #16
 8004f72:	d912      	bls.n	8004f9a <pvPortMalloc+0xbe>
 8004f74:	18e8      	adds	r0, r5, r3
 8004f76:	0741      	lsls	r1, r0, #29
 8004f78:	d00b      	beq.n	8004f92 <pvPortMalloc+0xb6>
 8004f7a:	f04f 0350 	mov.w	r3, #80	; 0x50
 8004f7e:	f383 8811 	msr	BASEPRI, r3
 8004f82:	f3bf 8f6f 	isb	sy
 8004f86:	f3bf 8f4f 	dsb	sy
 8004f8a:	e7fe      	b.n	8004f8a <pvPortMalloc+0xae>
 8004f8c:	462a      	mov	r2, r5
 8004f8e:	4625      	mov	r5, r4
 8004f90:	e7e2      	b.n	8004f58 <pvPortMalloc+0x7c>
 8004f92:	6042      	str	r2, [r0, #4]
 8004f94:	606b      	str	r3, [r5, #4]
 8004f96:	f7ff ff7d 	bl	8004e94 <prvInsertBlockIntoFreeList>
 8004f9a:	686b      	ldr	r3, [r5, #4]
 8004f9c:	4913      	ldr	r1, [pc, #76]	; (8004fec <pvPortMalloc+0x110>)
 8004f9e:	1af6      	subs	r6, r6, r3
 8004fa0:	431f      	orrs	r7, r3
 8004fa2:	2300      	movs	r3, #0
 8004fa4:	6808      	ldr	r0, [r1, #0]
 8004fa6:	f8c8 6000 	str.w	r6, [r8]
 8004faa:	4286      	cmp	r6, r0
 8004fac:	bf38      	it	cc
 8004fae:	600e      	strcc	r6, [r1, #0]
 8004fb0:	3408      	adds	r4, #8
 8004fb2:	606f      	str	r7, [r5, #4]
 8004fb4:	602b      	str	r3, [r5, #0]
 8004fb6:	f7ff f919 	bl	80041ec <xTaskResumeAll>
 8004fba:	0763      	lsls	r3, r4, #29
 8004fbc:	d00a      	beq.n	8004fd4 <pvPortMalloc+0xf8>
 8004fbe:	f04f 0350 	mov.w	r3, #80	; 0x50
 8004fc2:	f383 8811 	msr	BASEPRI, r3
 8004fc6:	f3bf 8f6f 	isb	sy
 8004fca:	f3bf 8f4f 	dsb	sy
 8004fce:	e7fe      	b.n	8004fce <pvPortMalloc+0xf2>
 8004fd0:	2400      	movs	r4, #0
 8004fd2:	e7f0      	b.n	8004fb6 <pvPortMalloc+0xda>
 8004fd4:	4620      	mov	r0, r4
 8004fd6:	e8bd 81f0 	ldmia.w	sp!, {r4, r5, r6, r7, r8, pc}
 8004fda:	bf00      	nop
 8004fdc:	20000f24 	.word	0x20000f24
 8004fe0:	20001b28 	.word	0x20001b28
 8004fe4:	20000f28 	.word	0x20000f28
 8004fe8:	20001b34 	.word	0x20001b34
 8004fec:	20001b30 	.word	0x20001b30
 8004ff0:	20001b2c 	.word	0x20001b2c

08004ff4 <vPortFree>:
 8004ff4:	b510      	push	{r4, lr}
 8004ff6:	4604      	mov	r4, r0
 8004ff8:	b370      	cbz	r0, 8005058 <vPortFree+0x64>
 8004ffa:	4a18      	ldr	r2, [pc, #96]	; (800505c <vPortFree+0x68>)
 8004ffc:	f850 3c04 	ldr.w	r3, [r0, #-4]
 8005000:	6812      	ldr	r2, [r2, #0]
 8005002:	4213      	tst	r3, r2
 8005004:	d108      	bne.n	8005018 <vPortFree+0x24>
 8005006:	f04f 0350 	mov.w	r3, #80	; 0x50
 800500a:	f383 8811 	msr	BASEPRI, r3
 800500e:	f3bf 8f6f 	isb	sy
 8005012:	f3bf 8f4f 	dsb	sy
 8005016:	e7fe      	b.n	8005016 <vPortFree+0x22>
 8005018:	f850 1c08 	ldr.w	r1, [r0, #-8]
 800501c:	b141      	cbz	r1, 8005030 <vPortFree+0x3c>
 800501e:	f04f 0350 	mov.w	r3, #80	; 0x50
 8005022:	f383 8811 	msr	BASEPRI, r3
 8005026:	f3bf 8f6f 	isb	sy
 800502a:	f3bf 8f4f 	dsb	sy
 800502e:	e7fe      	b.n	800502e <vPortFree+0x3a>
 8005030:	ea23 0302 	bic.w	r3, r3, r2
 8005034:	f840 3c04 	str.w	r3, [r0, #-4]
 8005038:	f7ff f83a 	bl	80040b0 <vTaskSuspendAll>
 800503c:	4a08      	ldr	r2, [pc, #32]	; (8005060 <vPortFree+0x6c>)
 800503e:	f854 3c04 	ldr.w	r3, [r4, #-4]
 8005042:	6811      	ldr	r1, [r2, #0]
 8005044:	f1a4 0008 	sub.w	r0, r4, #8
 8005048:	440b      	add	r3, r1
 800504a:	6013      	str	r3, [r2, #0]
 800504c:	f7ff ff22 	bl	8004e94 <prvInsertBlockIntoFreeList>
 8005050:	e8bd 4010 	ldmia.w	sp!, {r4, lr}
 8005054:	f7ff b8ca 	b.w	80041ec <xTaskResumeAll>
 8005058:	bd10      	pop	{r4, pc}
 800505a:	bf00      	nop
 800505c:	20001b28 	.word	0x20001b28
 8005060:	20001b2c 	.word	0x20001b2c

08005064 <MX_USB_DEVICE_Init>:
 8005064:	b508      	push	{r3, lr}
 8005066:	2200      	movs	r2, #0
 8005068:	490e      	ldr	r1, [pc, #56]	; (80050a4 <MX_USB_DEVICE_Init+0x40>)
 800506a:	480f      	ldr	r0, [pc, #60]	; (80050a8 <MX_USB_DEVICE_Init+0x44>)
 800506c:	f7fd fdcc 	bl	8002c08 <USBD_Init>
 8005070:	b108      	cbz	r0, 8005076 <MX_USB_DEVICE_Init+0x12>
 8005072:	f7fb f9b1 	bl	80003d8 <Error_Handler>
 8005076:	490d      	ldr	r1, [pc, #52]	; (80050ac <MX_USB_DEVICE_Init+0x48>)
 8005078:	480b      	ldr	r0, [pc, #44]	; (80050a8 <MX_USB_DEVICE_Init+0x44>)
 800507a:	f7fd fdda 	bl	8002c32 <USBD_RegisterClass>
 800507e:	b108      	cbz	r0, 8005084 <MX_USB_DEVICE_Init+0x20>
 8005080:	f7fb f9aa 	bl	80003d8 <Error_Handler>
 8005084:	490a      	ldr	r1, [pc, #40]	; (80050b0 <MX_USB_DEVICE_Init+0x4c>)
 8005086:	4808      	ldr	r0, [pc, #32]	; (80050a8 <MX_USB_DEVICE_Init+0x44>)
 8005088:	f7fd fd96 	bl	8002bb8 <USBD_CDC_RegisterInterface>
 800508c:	b108      	cbz	r0, 8005092 <MX_USB_DEVICE_Init+0x2e>
 800508e:	f7fb f9a3 	bl	80003d8 <Error_Handler>
 8005092:	4805      	ldr	r0, [pc, #20]	; (80050a8 <MX_USB_DEVICE_Init+0x44>)
 8005094:	f7fd fdd4 	bl	8002c40 <USBD_Start>
 8005098:	b118      	cbz	r0, 80050a2 <MX_USB_DEVICE_Init+0x3e>
 800509a:	e8bd 4008 	ldmia.w	sp!, {r3, lr}
 800509e:	f7fb b99b 	b.w	80003d8 <Error_Handler>
 80050a2:	bd08      	pop	{r3, pc}
 80050a4:	20000130 	.word	0x20000130
 80050a8:	20001de8 	.word	0x20001de8
 80050ac:	2000000c 	.word	0x2000000c
 80050b0:	20000120 	.word	0x20000120

080050b4 <CDC_DeInit_FS>:
 80050b4:	2000      	movs	r0, #0
 80050b6:	4770      	bx	lr

080050b8 <CDC_Control_FS>:
 80050b8:	2000      	movs	r0, #0
 80050ba:	4770      	bx	lr

080050bc <CDC_Receive_FS>:
 80050bc:	b510      	push	{r4, lr}
 80050be:	4c05      	ldr	r4, [pc, #20]	; (80050d4 <CDC_Receive_FS+0x18>)
 80050c0:	4601      	mov	r1, r0
 80050c2:	4620      	mov	r0, r4
 80050c4:	f7fd fd87 	bl	8002bd6 <USBD_CDC_SetRxBuffer>
 80050c8:	4620      	mov	r0, r4
 80050ca:	f7fd fd8a 	bl	8002be2 <USBD_CDC_ReceivePacket>
 80050ce:	2000      	movs	r0, #0
 80050d0:	bd10      	pop	{r4, pc}
 80050d2:	bf00      	nop
 80050d4:	20001de8 	.word	0x20001de8

080050d8 <CDC_Init_FS>:
 80050d8:	b510      	push	{r4, lr}
 80050da:	4c06      	ldr	r4, [pc, #24]	; (80050f4 <CDC_Init_FS+0x1c>)
 80050dc:	2200      	movs	r2, #0
 80050de:	4906      	ldr	r1, [pc, #24]	; (80050f8 <CDC_Init_FS+0x20>)
 80050e0:	4620      	mov	r0, r4
 80050e2:	f7fd fd70 	bl	8002bc6 <USBD_CDC_SetTxBuffer>
 80050e6:	4905      	ldr	r1, [pc, #20]	; (80050fc <CDC_Init_FS+0x24>)
 80050e8:	4620      	mov	r0, r4
 80050ea:	f7fd fd74 	bl	8002bd6 <USBD_CDC_SetRxBuffer>
 80050ee:	2000      	movs	r0, #0
 80050f0:	bd10      	pop	{r4, pc}
 80050f2:	bf00      	nop
 80050f4:	20001de8 	.word	0x20001de8
 80050f8:	20002494 	.word	0x20002494
 80050fc:	200020ac 	.word	0x200020ac

08005100 <USBD_FS_DeviceDescriptor>:
 8005100:	2312      	movs	r3, #18
 8005102:	4801      	ldr	r0, [pc, #4]	; (8005108 <USBD_FS_DeviceDescriptor+0x8>)
 8005104:	800b      	strh	r3, [r1, #0]
 8005106:	4770      	bx	lr
 8005108:	2000014c 	.word	0x2000014c

0800510c <USBD_FS_LangIDStrDescriptor>:
 800510c:	2304      	movs	r3, #4
 800510e:	4801      	ldr	r0, [pc, #4]	; (8005114 <USBD_FS_LangIDStrDescriptor+0x8>)
 8005110:	800b      	strh	r3, [r1, #0]
 8005112:	4770      	bx	lr
 8005114:	20000160 	.word	0x20000160

08005118 <IntToUnicode>:
 8005118:	2300      	movs	r3, #0
 800511a:	b570      	push	{r4, r5, r6, lr}
 800511c:	461e      	mov	r6, r3
 800511e:	0f05      	lsrs	r5, r0, #28
 8005120:	b2ec      	uxtb	r4, r5
 8005122:	2d09      	cmp	r5, #9
 8005124:	bf94      	ite	ls
 8005126:	3430      	addls	r4, #48	; 0x30
 8005128:	3437      	addhi	r4, #55	; 0x37
 800512a:	f801 4013 	strb.w	r4, [r1, r3, lsl #1]
 800512e:	eb01 0443 	add.w	r4, r1, r3, lsl #1
 8005132:	3301      	adds	r3, #1
 8005134:	7066      	strb	r6, [r4, #1]
 8005136:	b2dc      	uxtb	r4, r3
 8005138:	42a2      	cmp	r2, r4
 800513a:	ea4f 1000 	mov.w	r0, r0, lsl #4
 800513e:	d8ee      	bhi.n	800511e <IntToUnicode+0x6>
 8005140:	bd70      	pop	{r4, r5, r6, pc}
	...

08005144 <USBD_FS_SerialStrDescriptor>:
 8005144:	231a      	movs	r3, #26
 8005146:	b510      	push	{r4, lr}
 8005148:	800b      	strh	r3, [r1, #0]
 800514a:	4b09      	ldr	r3, [pc, #36]	; (8005170 <USBD_FS_SerialStrDescriptor+0x2c>)
 800514c:	6818      	ldr	r0, [r3, #0]
 800514e:	3308      	adds	r3, #8
 8005150:	681b      	ldr	r3, [r3, #0]
 8005152:	18c0      	adds	r0, r0, r3
 8005154:	d00a      	beq.n	800516c <USBD_FS_SerialStrDescriptor+0x28>
 8005156:	4b07      	ldr	r3, [pc, #28]	; (8005174 <USBD_FS_SerialStrDescriptor+0x30>)
 8005158:	2208      	movs	r2, #8
 800515a:	681c      	ldr	r4, [r3, #0]
 800515c:	4906      	ldr	r1, [pc, #24]	; (8005178 <USBD_FS_SerialStrDescriptor+0x34>)
 800515e:	f7ff ffdb 	bl	8005118 <IntToUnicode>
 8005162:	2204      	movs	r2, #4
 8005164:	4905      	ldr	r1, [pc, #20]	; (800517c <USBD_FS_SerialStrDescriptor+0x38>)
 8005166:	4620      	mov	r0, r4
 8005168:	f7ff ffd6 	bl	8005118 <IntToUnicode>
 800516c:	4804      	ldr	r0, [pc, #16]	; (8005180 <USBD_FS_SerialStrDescriptor+0x3c>)
 800516e:	bd10      	pop	{r4, pc}
 8005170:	1ffff7e8 	.word	0x1ffff7e8
 8005174:	1ffff7ec 	.word	0x1ffff7ec
 8005178:	20000166 	.word	0x20000166
 800517c:	20000176 	.word	0x20000176
 8005180:	20000164 	.word	0x20000164

08005184 <USBD_FS_ManufacturerStrDescriptor>:
 8005184:	b510      	push	{r4, lr}
 8005186:	4c04      	ldr	r4, [pc, #16]	; (8005198 <USBD_FS_ManufacturerStrDescriptor+0x14>)
 8005188:	460a      	mov	r2, r1
 800518a:	4804      	ldr	r0, [pc, #16]	; (800519c <USBD_FS_ManufacturerStrDescriptor+0x18>)
 800518c:	4621      	mov	r1, r4
 800518e:	f7fe f876 	bl	800327e <USBD_GetString>
 8005192:	4620      	mov	r0, r4
 8005194:	bd10      	pop	{r4, pc}
 8005196:	bf00      	nop
 8005198:	2000287c 	.word	0x2000287c
 800519c:	08005543 	.word	0x08005543

080051a0 <USBD_FS_ProductStrDescriptor>:
 80051a0:	b510      	push	{r4, lr}
 80051a2:	4c04      	ldr	r4, [pc, #16]	; (80051b4 <USBD_FS_ProductStrDescriptor+0x14>)
 80051a4:	460a      	mov	r2, r1
 80051a6:	4804      	ldr	r0, [pc, #16]	; (80051b8 <USBD_FS_ProductStrDescriptor+0x18>)
 80051a8:	4621      	mov	r1, r4
 80051aa:	f7fe f868 	bl	800327e <USBD_GetString>
 80051ae:	4620      	mov	r0, r4
 80051b0:	bd10      	pop	{r4, pc}
 80051b2:	bf00      	nop
 80051b4:	2000287c 	.word	0x2000287c
 80051b8:	08005556 	.word	0x08005556

080051bc <USBD_FS_ConfigStrDescriptor>:
 80051bc:	b510      	push	{r4, lr}
 80051be:	4c04      	ldr	r4, [pc, #16]	; (80051d0 <USBD_FS_ConfigStrDescriptor+0x14>)
 80051c0:	460a      	mov	r2, r1
 80051c2:	4804      	ldr	r0, [pc, #16]	; (80051d4 <USBD_FS_ConfigStrDescriptor+0x18>)
 80051c4:	4621      	mov	r1, r4
 80051c6:	f7fe f85a 	bl	800327e <USBD_GetString>
 80051ca:	4620      	mov	r0, r4
 80051cc:	bd10      	pop	{r4, pc}
 80051ce:	bf00      	nop
 80051d0:	2000287c 	.word	0x2000287c
 80051d4:	0800552a 	.word	0x0800552a

080051d8 <USBD_FS_InterfaceStrDescriptor>:
 80051d8:	b510      	push	{r4, lr}
 80051da:	4c04      	ldr	r4, [pc, #16]	; (80051ec <USBD_FS_InterfaceStrDescriptor+0x14>)
 80051dc:	460a      	mov	r2, r1
 80051de:	4804      	ldr	r0, [pc, #16]	; (80051f0 <USBD_FS_InterfaceStrDescriptor+0x18>)
 80051e0:	4621      	mov	r1, r4
 80051e2:	f7fe f84c 	bl	800327e <USBD_GetString>
 80051e6:	4620      	mov	r0, r4
 80051e8:	bd10      	pop	{r4, pc}
 80051ea:	bf00      	nop
 80051ec:	2000287c 	.word	0x2000287c
 80051f0:	08005535 	.word	0x08005535

080051f4 <HAL_PCD_MspInit>:
 80051f4:	b507      	push	{r0, r1, r2, lr}
 80051f6:	4b0e      	ldr	r3, [pc, #56]	; (8005230 <HAL_PCD_MspInit+0x3c>)
 80051f8:	6802      	ldr	r2, [r0, #0]
 80051fa:	429a      	cmp	r2, r3
 80051fc:	d115      	bne.n	800522a <HAL_PCD_MspInit+0x36>
 80051fe:	f503 33da 	add.w	r3, r3, #111616	; 0x1b400
 8005202:	69da      	ldr	r2, [r3, #28]
 8005204:	2105      	movs	r1, #5
 8005206:	f442 0200 	orr.w	r2, r2, #8388608	; 0x800000
 800520a:	61da      	str	r2, [r3, #28]
 800520c:	69db      	ldr	r3, [r3, #28]
 800520e:	2200      	movs	r2, #0
 8005210:	f403 0300 	and.w	r3, r3, #8388608	; 0x800000
 8005214:	9301      	str	r3, [sp, #4]
 8005216:	2014      	movs	r0, #20
 8005218:	9b01      	ldr	r3, [sp, #4]
 800521a:	f7fb f9c7 	bl	80005ac <HAL_NVIC_SetPriority>
 800521e:	2014      	movs	r0, #20
 8005220:	b003      	add	sp, #12
 8005222:	f85d eb04 	ldr.w	lr, [sp], #4
 8005226:	f7fb b9f5 	b.w	8000614 <HAL_NVIC_EnableIRQ>
 800522a:	b003      	add	sp, #12
 800522c:	f85d fb04 	ldr.w	pc, [sp], #4
 8005230:	40005c00 	.word	0x40005c00

08005234 <HAL_PCD_SetupStageCallback>:
 8005234:	f500 712c 	add.w	r1, r0, #688	; 0x2b0
 8005238:	f8d0 02e8 	ldr.w	r0, [r0, #744]	; 0x2e8
 800523c:	f7fd bd17 	b.w	8002c6e <USBD_LL_SetupStage>

08005240 <HAL_PCD_DataOutStageCallback>:
 8005240:	2328      	movs	r3, #40	; 0x28
 8005242:	fb03 0301 	mla	r3, r3, r1, r0
 8005246:	f8d0 02e8 	ldr.w	r0, [r0, #744]	; 0x2e8
 800524a:	f8d3 217c 	ldr.w	r2, [r3, #380]	; 0x17c
 800524e:	f7fd bd3b 	b.w	8002cc8 <USBD_LL_DataOutStage>

08005252 <HAL_PCD_DataInStageCallback>:
 8005252:	2328      	movs	r3, #40	; 0x28
 8005254:	fb03 0301 	mla	r3, r3, r1, r0
 8005258:	f8d0 02e8 	ldr.w	r0, [r0, #744]	; 0x2e8
 800525c:	6bda      	ldr	r2, [r3, #60]	; 0x3c
 800525e:	f7fd bd6d 	b.w	8002d3c <USBD_LL_DataInStage>

08005262 <HAL_PCD_SOFCallback>:
 8005262:	f8d0 02e8 	ldr.w	r0, [r0, #744]	; 0x2e8
 8005266:	f7fd be01 	b.w	8002e6c <USBD_LL_SOF>

0800526a <HAL_PCD_ResetCallback>:
 800526a:	6883      	ldr	r3, [r0, #8]
 800526c:	b510      	push	{r4, lr}
 800526e:	2b02      	cmp	r3, #2
 8005270:	4604      	mov	r4, r0
 8005272:	d001      	beq.n	8005278 <HAL_PCD_ResetCallback+0xe>
 8005274:	f7fb f8b0 	bl	80003d8 <Error_Handler>
 8005278:	f8d4 02e8 	ldr.w	r0, [r4, #744]	; 0x2e8
 800527c:	2101      	movs	r1, #1
 800527e:	f7fd fddf 	bl	8002e40 <USBD_LL_SetSpeed>
 8005282:	f8d4 02e8 	ldr.w	r0, [r4, #744]	; 0x2e8
 8005286:	e8bd 4010 	ldmia.w	sp!, {r4, lr}
 800528a:	f7fd bdb2 	b.w	8002df2 <USBD_LL_Reset>
	...

08005290 <HAL_PCD_SuspendCallback>:
 8005290:	b510      	push	{r4, lr}
 8005292:	4604      	mov	r4, r0
 8005294:	f8d0 02e8 	ldr.w	r0, [r0, #744]	; 0x2e8
 8005298:	f7fd fdd5 	bl	8002e46 <USBD_LL_Suspend>
 800529c:	69a3      	ldr	r3, [r4, #24]
 800529e:	b123      	cbz	r3, 80052aa <HAL_PCD_SuspendCallback+0x1a>
 80052a0:	4a02      	ldr	r2, [pc, #8]	; (80052ac <HAL_PCD_SuspendCallback+0x1c>)
 80052a2:	6913      	ldr	r3, [r2, #16]
 80052a4:	f043 0306 	orr.w	r3, r3, #6
 80052a8:	6113      	str	r3, [r2, #16]
 80052aa:	bd10      	pop	{r4, pc}
 80052ac:	e000ed00 	.word	0xe000ed00

080052b0 <HAL_PCD_ResumeCallback>:
 80052b0:	f8d0 02e8 	ldr.w	r0, [r0, #744]	; 0x2e8
 80052b4:	f7fd bdd0 	b.w	8002e58 <USBD_LL_Resume>

080052b8 <USBD_LL_Init>:
 80052b8:	2308      	movs	r3, #8
 80052ba:	b510      	push	{r4, lr}
 80052bc:	4a1d      	ldr	r2, [pc, #116]	; (8005334 <USBD_LL_Init+0x7c>)
 80052be:	4604      	mov	r4, r0
 80052c0:	481d      	ldr	r0, [pc, #116]	; (8005338 <USBD_LL_Init+0x80>)
 80052c2:	e9c0 2300 	strd	r2, r3, [r0]
 80052c6:	2302      	movs	r3, #2
 80052c8:	6083      	str	r3, [r0, #8]
 80052ca:	2300      	movs	r3, #0
 80052cc:	f8c0 42e8 	str.w	r4, [r0, #744]	; 0x2e8
 80052d0:	f8c4 02c0 	str.w	r0, [r4, #704]	; 0x2c0
 80052d4:	e9c0 3306 	strd	r3, r3, [r0, #24]
 80052d8:	6203      	str	r3, [r0, #32]
 80052da:	f7fb fa97 	bl	800080c <HAL_PCD_Init>
 80052de:	b108      	cbz	r0, 80052e4 <USBD_LL_Init+0x2c>
 80052e0:	f7fb f87a 	bl	80003d8 <Error_Handler>
 80052e4:	2200      	movs	r2, #0
 80052e6:	2318      	movs	r3, #24
 80052e8:	4611      	mov	r1, r2
 80052ea:	f8d4 02c0 	ldr.w	r0, [r4, #704]	; 0x2c0
 80052ee:	f7fc f851 	bl	8001394 <HAL_PCDEx_PMAConfig>
 80052f2:	2358      	movs	r3, #88	; 0x58
 80052f4:	2200      	movs	r2, #0
 80052f6:	2180      	movs	r1, #128	; 0x80
 80052f8:	f8d4 02c0 	ldr.w	r0, [r4, #704]	; 0x2c0
 80052fc:	f7fc f84a 	bl	8001394 <HAL_PCDEx_PMAConfig>
 8005300:	23c0      	movs	r3, #192	; 0xc0
 8005302:	2200      	movs	r2, #0
 8005304:	2181      	movs	r1, #129	; 0x81
 8005306:	f8d4 02c0 	ldr.w	r0, [r4, #704]	; 0x2c0
 800530a:	f7fc f843 	bl	8001394 <HAL_PCDEx_PMAConfig>
 800530e:	f44f 7388 	mov.w	r3, #272	; 0x110
 8005312:	2200      	movs	r2, #0
 8005314:	2101      	movs	r1, #1
 8005316:	f8d4 02c0 	ldr.w	r0, [r4, #704]	; 0x2c0
 800531a:	f7fc f83b 	bl	8001394 <HAL_PCDEx_PMAConfig>
 800531e:	f44f 7380 	mov.w	r3, #256	; 0x100
 8005322:	2200      	movs	r2, #0
 8005324:	2182      	movs	r1, #130	; 0x82
 8005326:	f8d4 02c0 	ldr.w	r0, [r4, #704]	; 0x2c0
 800532a:	f7fc f833 	bl	8001394 <HAL_PCDEx_PMAConfig>
 800532e:	2000      	movs	r0, #0
 8005330:	bd10      	pop	{r4, pc}
 8005332:	bf00      	nop
 8005334:	40005c00 	.word	0x40005c00
 8005338:	20002a7c 	.word	0x20002a7c

0800533c <USBD_LL_Start>:
 800533c:	b508      	push	{r3, lr}
 800533e:	f8d0 02c0 	ldr.w	r0, [r0, #704]	; 0x2c0
 8005342:	f7fb fadb 	bl	80008fc <HAL_PCD_Start>
 8005346:	2803      	cmp	r0, #3
 8005348:	bf96      	itet	ls
 800534a:	4b02      	ldrls	r3, [pc, #8]	; (8005354 <USBD_LL_Start+0x18>)
 800534c:	2002      	movhi	r0, #2
 800534e:	5c18      	ldrbls	r0, [r3, r0]
 8005350:	bd08      	pop	{r3, pc}
 8005352:	bf00      	nop
 8005354:	0800556c 	.word	0x0800556c

08005358 <USBD_LL_OpenEP>:
 8005358:	b510      	push	{r4, lr}
 800535a:	461c      	mov	r4, r3
 800535c:	f8d0 02c0 	ldr.w	r0, [r0, #704]	; 0x2c0
 8005360:	4613      	mov	r3, r2
 8005362:	4622      	mov	r2, r4
 8005364:	f7fb ff1a 	bl	800119c <HAL_PCD_EP_Open>
 8005368:	2803      	cmp	r0, #3
 800536a:	bf96      	itet	ls
 800536c:	4b01      	ldrls	r3, [pc, #4]	; (8005374 <USBD_LL_OpenEP+0x1c>)
 800536e:	2002      	movhi	r0, #2
 8005370:	5c18      	ldrbls	r0, [r3, r0]
 8005372:	bd10      	pop	{r4, pc}
 8005374:	0800556c 	.word	0x0800556c

08005378 <USBD_LL_CloseEP>:
 8005378:	b508      	push	{r3, lr}
 800537a:	f8d0 02c0 	ldr.w	r0, [r0, #704]	; 0x2c0
 800537e:	f7fb ff3f 	bl	8001200 <HAL_PCD_EP_Close>
 8005382:	2803      	cmp	r0, #3
 8005384:	bf96      	itet	ls
 8005386:	4b02      	ldrls	r3, [pc, #8]	; (8005390 <USBD_LL_CloseEP+0x18>)
 8005388:	2002      	movhi	r0, #2
 800538a:	5c18      	ldrbls	r0, [r3, r0]
 800538c:	bd08      	pop	{r3, pc}
 800538e:	bf00      	nop
 8005390:	0800556c 	.word	0x0800556c

08005394 <USBD_LL_StallEP>:
 8005394:	b508      	push	{r3, lr}
 8005396:	f8d0 02c0 	ldr.w	r0, [r0, #704]	; 0x2c0
 800539a:	f7fb ff95 	bl	80012c8 <HAL_PCD_EP_SetStall>
 800539e:	2803      	cmp	r0, #3
 80053a0:	bf96      	itet	ls
 80053a2:	4b02      	ldrls	r3, [pc, #8]	; (80053ac <USBD_LL_StallEP+0x18>)
 80053a4:	2002      	movhi	r0, #2
 80053a6:	5c18      	ldrbls	r0, [r3, r0]
 80053a8:	bd08      	pop	{r3, pc}
 80053aa:	bf00      	nop
 80053ac:	0800556c 	.word	0x0800556c

080053b0 <USBD_LL_ClearStallEP>:
 80053b0:	b508      	push	{r3, lr}
 80053b2:	f8d0 02c0 	ldr.w	r0, [r0, #704]	; 0x2c0
 80053b6:	f7fb ffbb 	bl	8001330 <HAL_PCD_EP_ClrStall>
 80053ba:	2803      	cmp	r0, #3
 80053bc:	bf96      	itet	ls
 80053be:	4b02      	ldrls	r3, [pc, #8]	; (80053c8 <USBD_LL_ClearStallEP+0x18>)
 80053c0:	2002      	movhi	r0, #2
 80053c2:	5c18      	ldrbls	r0, [r3, r0]
 80053c4:	bd08      	pop	{r3, pc}
 80053c6:	bf00      	nop
 80053c8:	0800556c 	.word	0x0800556c

080053cc <USBD_LL_IsStallEP>:
 80053cc:	2228      	movs	r2, #40	; 0x28
 80053ce:	f011 0f80 	tst.w	r1, #128	; 0x80
 80053d2:	f8d0 02c0 	ldr.w	r0, [r0, #704]	; 0x2c0
 80053d6:	bf1b      	ittet	ne
 80053d8:	f001 037f 	andne.w	r3, r1, #127	; 0x7f
 80053dc:	fb03 2102 	mlane	r1, r3, r2, r2
 80053e0:	fb02 0101 	mlaeq	r1, r2, r1, r0
 80053e4:	1809      	addne	r1, r1, r0
 80053e6:	bf14      	ite	ne
 80053e8:	7888      	ldrbne	r0, [r1, #2]
 80053ea:	f891 016a 	ldrbeq.w	r0, [r1, #362]	; 0x16a
 80053ee:	4770      	bx	lr

080053f0 <USBD_LL_SetUSBAddress>:
 80053f0:	b508      	push	{r3, lr}
 80053f2:	f8d0 02c0 	ldr.w	r0, [r0, #704]	; 0x2c0
 80053f6:	f7fb fa9a 	bl	800092e <HAL_PCD_SetAddress>
 80053fa:	2803      	cmp	r0, #3
 80053fc:	bf96      	itet	ls
 80053fe:	4b02      	ldrls	r3, [pc, #8]	; (8005408 <USBD_LL_SetUSBAddress+0x18>)
 8005400:	2002      	movhi	r0, #2
 8005402:	5c18      	ldrbls	r0, [r3, r0]
 8005404:	bd08      	pop	{r3, pc}
 8005406:	bf00      	nop
 8005408:	0800556c 	.word	0x0800556c

0800540c <USBD_LL_Transmit>:
 800540c:	b508      	push	{r3, lr}
 800540e:	f8d0 02c0 	ldr.w	r0, [r0, #704]	; 0x2c0
 8005412:	f7fb ff3f 	bl	8001294 <HAL_PCD_EP_Transmit>
 8005416:	2803      	cmp	r0, #3
 8005418:	bf96      	itet	ls
 800541a:	4b02      	ldrls	r3, [pc, #8]	; (8005424 <USBD_LL_Transmit+0x18>)
 800541c:	2002      	movhi	r0, #2
 800541e:	5c18      	ldrbls	r0, [r3, r0]
 8005420:	bd08      	pop	{r3, pc}
 8005422:	bf00      	nop
 8005424:	0800556c 	.word	0x0800556c

08005428 <USBD_LL_PrepareReceive>:
 8005428:	b508      	push	{r3, lr}
 800542a:	f8d0 02c0 	ldr.w	r0, [r0, #704]	; 0x2c0
 800542e:	f7fb ff10 	bl	8001252 <HAL_PCD_EP_Receive>
 8005432:	2803      	cmp	r0, #3
 8005434:	bf96      	itet	ls
 8005436:	4b02      	ldrls	r3, [pc, #8]	; (8005440 <USBD_LL_PrepareReceive+0x18>)
 8005438:	2002      	movhi	r0, #2
 800543a:	5c18      	ldrbls	r0, [r3, r0]
 800543c:	bd08      	pop	{r3, pc}
 800543e:	bf00      	nop
 8005440:	0800556c 	.word	0x0800556c

08005444 <USBD_LL_GetRxDataSize>:
 8005444:	f8d0 02c0 	ldr.w	r0, [r0, #704]	; 0x2c0
 8005448:	f7fb bf1c 	b.w	8001284 <HAL_PCD_EP_GetRxCount>

0800544c <USBD_static_malloc>:
 800544c:	4800      	ldr	r0, [pc, #0]	; (8005450 <USBD_static_malloc+0x4>)
 800544e:	4770      	bx	lr
 8005450:	20001b3c 	.word	0x20001b3c

08005454 <USBD_static_free>:
 8005454:	4770      	bx	lr

08005456 <HAL_PCDEx_SetConnectionState>:
 8005456:	4770      	bx	lr

08005458 <__libc_init_array>:
 8005458:	b570      	push	{r4, r5, r6, lr}
 800545a:	2500      	movs	r5, #0
 800545c:	4e0c      	ldr	r6, [pc, #48]	; (8005490 <__libc_init_array+0x38>)
 800545e:	4c0d      	ldr	r4, [pc, #52]	; (8005494 <__libc_init_array+0x3c>)
 8005460:	1ba4      	subs	r4, r4, r6
 8005462:	10a4      	asrs	r4, r4, #2
 8005464:	42a5      	cmp	r5, r4
 8005466:	d109      	bne.n	800547c <__libc_init_array+0x24>
 8005468:	f000 f82e 	bl	80054c8 <_init>
 800546c:	2500      	movs	r5, #0
 800546e:	4e0a      	ldr	r6, [pc, #40]	; (8005498 <__libc_init_array+0x40>)
 8005470:	4c0a      	ldr	r4, [pc, #40]	; (800549c <__libc_init_array+0x44>)
 8005472:	1ba4      	subs	r4, r4, r6
 8005474:	10a4      	asrs	r4, r4, #2
 8005476:	42a5      	cmp	r5, r4
 8005478:	d105      	bne.n	8005486 <__libc_init_array+0x2e>
 800547a:	bd70      	pop	{r4, r5, r6, pc}
 800547c:	f856 3025 	ldr.w	r3, [r6, r5, lsl #2]
 8005480:	4798      	blx	r3
 8005482:	3501      	adds	r5, #1
 8005484:	e7ee      	b.n	8005464 <__libc_init_array+0xc>
 8005486:	f856 3025 	ldr.w	r3, [r6, r5, lsl #2]
 800548a:	4798      	blx	r3
 800548c:	3501      	adds	r5, #1
 800548e:	e7f2      	b.n	8005476 <__libc_init_array+0x1e>
 8005490:	08005570 	.word	0x08005570
 8005494:	08005570 	.word	0x08005570
 8005498:	08005570 	.word	0x08005570
 800549c:	08005574 	.word	0x08005574

080054a0 <memcpy>:
 80054a0:	b510      	push	{r4, lr}
 80054a2:	1e43      	subs	r3, r0, #1
 80054a4:	440a      	add	r2, r1
 80054a6:	4291      	cmp	r1, r2
 80054a8:	d100      	bne.n	80054ac <memcpy+0xc>
 80054aa:	bd10      	pop	{r4, pc}
 80054ac:	f811 4b01 	ldrb.w	r4, [r1], #1
 80054b0:	f803 4f01 	strb.w	r4, [r3, #1]!
 80054b4:	e7f7      	b.n	80054a6 <memcpy+0x6>

080054b6 <memset>:
 80054b6:	4603      	mov	r3, r0
 80054b8:	4402      	add	r2, r0
 80054ba:	4293      	cmp	r3, r2
 80054bc:	d100      	bne.n	80054c0 <memset+0xa>
 80054be:	4770      	bx	lr
 80054c0:	f803 1b01 	strb.w	r1, [r3], #1
 80054c4:	e7f9      	b.n	80054ba <memset+0x4>
	...

080054c8 <_init>:
 80054c8:	b5f8      	push	{r3, r4, r5, r6, r7, lr}
 80054ca:	bf00      	nop
 80054cc:	bcf8      	pop	{r3, r4, r5, r6, r7}
 80054ce:	bc08      	pop	{r3}
 80054d0:	469e      	mov	lr, r3
 80054d2:	4770      	bx	lr

080054d4 <_fini>:
 80054d4:	b5f8      	push	{r3, r4, r5, r6, r7, lr}
 80054d6:	bf00      	nop
 80054d8:	bcf8      	pop	{r3, r4, r5, r6, r7}
 80054da:	bc08      	pop	{r3}
 80054dc:	469e      	mov	lr, r3
 80054de:	4770      	bx	lr
